(dp0
I0
(lp1
I17460
aI17460
aI17460
aI17460
aI17460
aI17460
aI17460
aI17460
aI17460
aI17460
aI17460
aI17460
aI17460
aI17460
aI17460
aI17460
aI17460
aI17460
aI17460
aI17460
aI17460
aI17460
aI17460
aI17460
aI17460
aI17460
aI17460
aI17460
aI17460
aI17460
aI17460
aI17460
aI17460
aI17460
aI17460
aI17460
aI17460
aI17460
aI17460
aI17460
aI17460
aI17460
aI17460
aI17460
aI17460
aI17460
aI17460
aI17460
aI17460
aI17460
aI17460
aI17460
aI17460
aI17460
aI17460
aI17460
aI17460
aI17460
aI17460
aI17460
aI17460
aI17460
aI17460
aI17460
aI17460
aI17460
aI17460
aI17460
aI17460
aI17460
aI17460
aI17460
aI17460
aI17460
aI17460
aI17460
aI17460
aI17460
aI17460
aI17460
aI17460
aI17460
aI17460
aI17460
aI17460
aI17460
aI17460
aI17460
aI17460
aI17460
aI17460
aI17460
aI17460
aI17460
aI17460
aI17460
aI17460
aI17460
aI17460
aI17460
aI17460
aI17460
aI17460
aI17460
aI17460
aI17460
aI17460
aI17460
aI17460
aI17460
aI17460
aI17460
aI17460
aI17460
aI17460
aI17460
aI17460
aI17460
aI17460
aI17460
aI17460
aI17460
aI17460
aI17460
aI17460
aI17460
aI17460
aI17460
aI17460
aI17460
aI17460
aI17460
aI17460
aI17460
aI17460
aI17460
aI17460
aI17460
aI17460
aI17460
aI17460
aI17460
aI17460
aI17460
aI17460
aI17460
aI17460
aI17460
aI17460
aI17460
aI17460
aI17460
aI17460
aI17460
aI17460
aI17460
aI17460
aI17460
aI17460
aI17460
aI17460
aI17460
aI17460
aI17460
aI17460
aI17460
aI17460
aI17460
aI17460
aI17460
aI17460
aI17460
aI17460
aI17460
aI17460
aI17460
aI17460
aI17460
aI17460
aI17460
aI17460
aI17460
aI17460
aI17460
aI17460
aI17460
aI17460
aI17460
aI17460
aI17460
aI17460
aI17460
aI17460
aI17460
aI17460
aI17460
aI17460
aI17460
aI17460
aI17460
aI17460
aI17460
aI17460
aI17460
aI17460
aI17460
aI17460
aI17460
aI17460
aI17460
aI17460
aI17460
aI17460
aI17460
aI17460
aI17460
aI17460
aI17460
aI17460
aI17460
aI17460
aI17460
aI17460
aI17460
aI17460
aI17460
aI17460
aI17460
aI17460
aI17460
aI17460
aI17460
aI17460
aI17460
aI17460
aI17460
aI17460
aI17460
aI17460
aI17460
aI17460
aI17460
aI17460
aI17460
aI17460
aI17460
aI17460
aI17460
aI17460
aI17460
aI17460
aI17460
aI17460
aI17460
aI17460
aI17460
aI17460
aI17460
aI17460
aI17460
aI17460
aI17460
aI17460
aI17460
aI17460
aI17460
aI17460
aI17460
aI17460
aI17460
aI17460
aI17460
aI17460
aI17460
aI17460
aI17460
aI17460
aI17460
aI17460
aI17460
aI17460
aI17460
aI17460
aI17460
aI17460
aI17460
aI17460
aI17460
aI17460
aI17460
aI17460
aI17460
aI17460
aI17460
aI17460
aI17460
aI17460
aI17460
aI17460
aI17460
aI17460
aI17460
aI17460
aI17460
aI17460
aI17460
aI17460
aI17460
aI17460
aI17460
aI17460
aI17460
aI17460
aI17460
aI17460
aI17460
aI17460
aI17460
aI17460
aI17460
aI17460
aI17460
aI17460
aI17460
aI17460
aI17460
aI17460
aI17460
aI17460
aI17460
aI17460
aI17460
aI17460
aI17460
aI17460
aI17460
aI17460
aI17460
aI17460
aI17460
aI17460
aI17460
aI17460
aI17460
aI17460
aI17460
aI17460
aI17460
aI17460
aI17460
aI17460
aI17460
aI17460
aI17460
aI17460
aI17460
aI17460
aI17460
aI17460
aI17460
aI17460
aI17460
aI17460
aI17460
aI17460
aI17460
aI17460
aI17460
aI17460
aI17460
aI17460
aI17460
aI17460
aI17460
aI17460
aI17460
aI17460
aI17460
aI17460
aI17460
aI17460
aI17460
aI17460
aI17460
aI17460
aI17460
aI17460
aI17460
aI17460
aI17460
aI17460
aI17460
aI17460
aI17460
aI17460
aI17460
aI17460
aI17460
aI17460
aI17460
aI17460
aI17460
aI17460
aI17460
aI17460
aI17460
aI17460
aI17460
aI17460
aI17460
aI17460
aI17460
aI17460
aI17460
aI17460
aI17460
aI17460
aI17460
aI17460
aI17460
aI17460
aI17460
aI17460
aI17460
aI17460
aI17460
aI17460
aI17460
aI17460
aI17460
aI17460
aI17460
aI17460
aI17460
aI17460
aI17460
aI17460
aI17460
aI17460
aI17460
aI17460
aI17460
aI17460
aI17460
aI17460
aI17460
aI17460
aI17460
aI17460
aI17460
aI17460
aI17460
aI17460
aI17460
aI17460
aI17460
aI17460
aI17460
aI17460
aI17460
aI17460
aI17460
aI17460
aI17460
aI17460
aI17460
aI17460
aI17460
aI17460
aI17460
aI17460
aI17460
aI17460
aI17460
aI17460
aI17460
aI17460
aI17460
aI17460
aI17460
aI17460
aI17460
aI17460
aI17460
aI17460
aI17460
aI17460
aI17460
aI17460
aI17460
aI17460
aI17460
aI17460
aI17460
aI17460
aI17460
aI17460
aI17460
aI17460
aI17460
aI17460
aI17460
aI17460
aI17460
aI17460
aI17460
aI17460
aI17460
aI17460
aI17460
aI17460
aI17460
aI17460
aI17460
aI17460
aI17460
aI17460
aI17460
aI17460
aI17460
aI17460
aI17460
aI17460
aI17460
aI17460
aI17460
aI17460
aI17460
aI17460
aI17460
aI17460
aI17460
aI17460
aI17460
aI17460
aI17460
aI17460
aI17460
aI17460
aI17460
aI17460
aI17460
aI17460
aI17460
aI17460
aI17460
aI17460
aI17460
aI17460
aI17460
aI17460
aI17460
aI17460
aI17460
aI17460
aI17460
aI17460
aI17460
aI17460
aI17460
aI17460
aI17460
aI17460
aI17460
aI17460
aI17460
aI17460
aI17460
aI17460
aI17460
aI17460
aI17460
aI17460
aI17460
aI17460
aI17460
aI17460
aI17460
aI17460
aI17460
aI17460
aI17460
aI17460
aI17460
aI17460
aI17460
aI17460
aI17460
aI17460
aI17460
aI17460
aI17460
aI17460
aI17460
aI17460
aI17460
aI17460
aI17460
aI17460
aI17460
aI17460
aI17460
aI17460
aI17460
aI17460
aI17460
aI17460
aI17460
aI17460
aI17460
aI17460
aI17460
aI17460
aI17460
aI17460
aI17460
aI17460
aI17460
aI17460
aI17460
aI17460
aI17460
aI17460
aI17460
aI17460
aI17460
aI17460
aI17460
aI17460
aI17460
aI17460
aI17460
aI17460
aI17460
aI17460
aI17460
aI17460
aI17460
aI17460
aI17460
aI17460
aI17460
aI17460
aI17460
aI17460
aI17460
aI17460
aI17460
aI17460
aI17460
aI17460
aI17460
aI17460
aI17460
aI17460
aI17460
aI17460
aI17460
aI17460
aI17460
aI17460
aI17460
aI17460
aI17460
aI17460
aI17460
aI17460
aI17460
aI17460
aI17460
aI17460
aI17460
aI17460
aI17460
aI17460
aI17460
aI17460
aI17460
aI17460
aI17460
aI17460
aI17460
aI17460
aI17460
aI17460
aI17460
aI17460
aI17460
aI17460
aI17460
aI17460
aI17460
aI17460
aI17460
aI17460
aI17460
aI17460
aI17460
aI17460
aI17460
aI17460
aI17460
aI17460
aI17460
aI17460
aI17460
aI17460
aI17460
aI17460
aI17460
aI17460
aI17460
aI17460
aI17460
aI17460
aI17460
aI17460
aI17460
aI17460
aI17460
aI17460
aI17460
aI17460
aI17460
aI17460
aI17460
aI17460
aI17460
aI17460
aI17460
aI17460
aI17460
aI17460
aI17460
aI17460
aI17460
aI17460
aI17460
aI17460
aI17460
aI17460
aI17460
aI17460
aI17460
aI17460
aI17460
aI17460
aI17460
aI17460
aI17460
aI17460
aI17460
aI17460
aI17460
aI17460
aI17460
aI17460
aI17460
aI17460
aI17460
aI17460
aI17460
aI17460
aI17460
aI17460
aI17460
aI17460
aI17460
aI17460
aI17460
aI17460
aI17460
aI17460
aI17460
aI17460
aI17460
aI17460
aI17460
aI17460
aI17460
aI17460
aI17460
aI17460
aI17460
aI17460
aI17460
aI17460
aI17460
aI17460
aI17460
aI17460
aI17460
aI17460
aI17460
aI17460
aI17460
aI17460
aI17460
aI17460
aI17460
aI17460
aI17460
aI17460
aI17460
aI17460
aI17460
aI17460
aI17460
aI17460
aI17460
aI17460
aI17460
aI17460
aI17460
aI17460
aI17460
aI17460
aI17460
aI17460
aI17460
aI17460
aI17460
aI17460
aI17460
aI17460
aI17460
aI17460
aI17460
aI17460
aI17460
aI17460
aI17460
aI17460
aI17460
aI17460
aI17460
aI17460
aI17460
aI17460
aI17460
aI17460
aI17460
aI17460
aI17460
aI17460
aI17460
aI17460
aI17460
aI17460
aI17460
aI17460
aI17460
aI17460
aI17460
aI17460
aI17460
aI17460
aI17460
aI17460
aI17460
aI17460
aI17460
aI17460
aI17460
aI17460
aI17460
aI17460
aI17460
aI17460
aI17460
aI17460
aI17460
aI17460
aI17460
aI17460
aI17460
aI17460
aI17460
aI17460
aI17460
aI17460
aI17460
aI17460
aI17460
aI17460
aI17460
aI17460
aI17460
aI17460
aI17460
aI17460
aI17460
aI17460
aI17460
aI17460
aI17460
aI17460
aI17460
aI17460
aI17460
aI17460
aI17460
aI17460
aI17460
aI17460
aI17460
aI17460
aI17460
aI17460
aI17460
aI17460
aI17460
aI17460
aI17460
aI17460
aI17460
aI17460
aI17460
aI17460
aI17460
aI17460
aI17460
aI17460
aI17460
aI17460
aI17460
aI17460
aI17460
aI17460
aI17460
aI17460
aI17460
aI17460
aI17460
aI17460
aI17460
aI17460
aI17460
aI17460
aI17460
aI17460
aI17460
aI17460
aI17460
aI17460
aI17460
aI17460
aI17460
aI17460
aI17460
aI17460
aI17460
aI17460
aI17460
aI17460
aI17460
aI17460
aI17460
aI17460
aI17460
aI17460
aI17460
aI17460
aI17460
aI17460
aI17460
aI17460
aI17460
aI17460
aI17460
aI17460
aI17460
aI17460
aI17460
aI17460
aI17460
aI17460
aI17460
aI17460
aI17460
aI17460
aI17460
aI17460
aI17460
aI17460
aI17460
aI17460
aI17460
aI17460
aI17460
aI17460
aI17460
aI17460
aI17460
aI17460
aI17460
aI17460
aI17460
aI17460
aI17460
aI17460
aI17460
aI17460
aI17460
aI17460
aI17460
aI17460
aI17460
aI17460
aI17460
aI17460
aI17460
aI17460
aI17460
aI17460
aI17460
aI17460
aI17460
aI17460
aI17460
aI17460
aI17460
aI17460
aI17460
aI17460
aI17460
aI17460
aI17460
aI17460
aI17460
aI17460
aI17460
aI17460
aI17460
aI17460
aI17460
aI17460
aI17460
aI17460
aI17460
aI17460
aI17460
aI17460
aI17460
aI17460
aI17460
aI17460
aI17460
aI17460
aI17460
aI17460
asI1
(lp2
I7463
aI7853
aI8087
aI7572
aI8525
aI8261
aI7826
aI8202
aI8870
aI8362
aI7678
aI8507
aI9081
aI8488
aI8512
aI8125
aI8562
aI8822
aI8181
aI8898
aI8098
aI8321
aI8181
aI7834
aI8062
aI7784
aI8700
aI7684
aI7790
aI8343
aI8564
aI8026
aI8455
aI8136
aI7572
aI8254
aI8182
aI7374
aI8023
aI8009
aI8075
aI8351
aI8228
aI8180
aI7997
aI8115
aI8329
aI7778
aI8695
aI9106
aI7447
aI8728
aI7755
aI7577
aI8516
aI9298
aI7793
aI7757
aI8093
aI8949
aI7978
aI8667
aI8725
aI7218
aI7960
aI8291
aI8396
aI7636
aI8181
aI8108
aI8358
aI8276
aI8269
aI7861
aI8909
aI7389
aI7877
aI7911
aI8245
aI7715
aI7853
aI7444
aI7376
aI7889
aI8559
aI8856
aI8355
aI7960
aI8479
aI7731
aI7646
aI8139
aI7716
aI8198
aI8459
aI7843
aI8707
aI8687
aI7796
aI7925
aI8492
aI8582
aI8282
aI8224
aI8477
aI8204
aI8776
aI8114
aI7423
aI8470
aI8688
aI8354
aI8276
aI8357
aI7532
aI8937
aI8029
aI7434
aI8987
aI8191
aI7955
aI8015
aI8192
aI8132
aI8245
aI7881
aI9150
aI8487
aI7796
aI7542
aI8132
aI7733
aI7930
aI9017
aI8167
aI7960
aI7789
aI7955
aI7533
aI8196
aI8450
aI7640
aI8011
aI7898
aI8021
aI8714
aI7916
aI8113
aI8768
aI8103
aI8380
aI8092
aI8666
aI7378
aI8207
aI8509
aI9058
aI8766
aI8196
aI8310
aI7875
aI8379
aI8006
aI9174
aI7833
aI8278
aI8310
aI7669
aI8563
aI8990
aI8389
aI8265
aI9096
aI8161
aI8667
aI8104
aI7905
aI8278
aI7836
aI8264
aI7951
aI8236
aI7620
aI7502
aI7487
aI9372
aI8265
aI8712
aI7953
aI8642
aI8038
aI7996
aI8509
aI8585
aI7735
aI7844
aI8255
aI9072
aI9419
aI8021
aI8718
aI7587
aI8263
aI8227
aI8342
aI8350
aI8156
aI7705
aI8129
aI8374
aI8149
aI7872
aI8043
aI7534
aI8074
aI7811
aI8050
aI7724
aI8074
aI8498
aI8883
aI7294
aI7442
aI8640
aI7933
aI8115
aI8839
aI8421
aI8277
aI8799
aI9542
aI7743
aI9617
aI8408
aI8788
aI7270
aI8284
aI7559
aI7924
aI8395
aI8887
aI8986
aI8331
aI7105
aI8534
aI9088
aI8001
aI9337
aI7874
aI8692
aI8362
aI7609
aI8241
aI8876
aI8243
aI7875
aI9263
aI8447
aI8030
aI8210
aI7335
aI8164
aI8306
aI8231
aI7758
aI8724
aI7996
aI7955
aI9015
aI8779
aI7868
aI7397
aI7705
aI8278
aI8140
aI8102
aI7659
aI7992
aI7500
aI8665
aI8213
aI8368
aI7951
aI8159
aI8357
aI7375
aI8565
aI8394
aI7779
aI9063
aI8706
aI8084
aI7988
aI9227
aI7757
aI9253
aI7219
aI8528
aI8363
aI8790
aI8104
aI7656
aI7876
aI8599
aI8203
aI8119
aI7887
aI7873
aI8475
aI9089
aI8882
aI8732
aI7607
aI8442
aI7782
aI8501
aI8282
aI8310
aI7887
aI8183
aI7908
aI8997
aI8193
aI8643
aI8755
aI9314
aI8521
aI8079
aI8291
aI8765
aI7537
aI7829
aI8720
aI8389
aI8479
aI7879
aI7891
aI8404
aI8005
aI7346
aI7872
aI8032
aI8628
aI8851
aI8404
aI7796
aI8212
aI7954
aI7766
aI7881
aI7727
aI8966
aI7936
aI7883
aI8622
aI8495
aI7761
aI8090
aI8119
aI8058
aI8828
aI7578
aI7901
aI9316
aI7978
aI7787
aI8684
aI8572
aI8657
aI8772
aI8256
aI7384
aI8079
aI7581
aI8313
aI7549
aI7456
aI8425
aI7647
aI8676
aI7984
aI7660
aI8018
aI8682
aI8564
aI9000
aI7764
aI7789
aI8753
aI7889
aI9222
aI7608
aI8554
aI7560
aI8355
aI8435
aI8923
aI8382
aI8175
aI8239
aI8481
aI8210
aI7703
aI8365
aI8335
aI7965
aI7734
aI8445
aI8120
aI8151
aI8367
aI8053
aI7991
aI8700
aI8065
aI8889
aI7781
aI8140
aI8056
aI8351
aI7495
aI8246
aI8195
aI8184
aI8231
aI8814
aI8037
aI7844
aI8680
aI8528
aI8816
aI8117
aI7581
aI7558
aI8730
aI8036
aI9226
aI7844
aI8556
aI8351
aI7965
aI8013
aI8260
aI9168
aI8236
aI7362
aI8146
aI7829
aI8124
aI8330
aI8184
aI8451
aI9320
aI8158
aI8126
aI8177
aI8411
aI8903
aI7247
aI7793
aI8037
aI8172
aI8993
aI7685
aI8323
aI8352
aI8683
aI8477
aI8104
aI8252
aI9436
aI9014
aI7518
aI8041
aI8769
aI8703
aI7953
aI8324
aI8238
aI7899
aI7997
aI7394
aI8809
aI8256
aI8531
aI7798
aI9489
aI8974
aI9571
aI8150
aI8399
aI7739
aI7863
aI8056
aI8249
aI8656
aI8207
aI8548
aI7939
aI8387
aI7833
aI8363
aI8704
aI8306
aI8449
aI7803
aI7995
aI7876
aI8915
aI8398
aI8883
aI8131
aI8104
aI7870
aI8280
aI8657
aI9102
aI8345
aI8369
aI8682
aI8031
aI7978
aI8542
aI8085
aI8360
aI8001
aI7830
aI8033
aI8190
aI7491
aI7486
aI8307
aI7586
aI8613
aI8265
aI7165
aI8775
aI8122
aI7339
aI8349
aI8283
aI7898
aI8148
aI8580
aI8334
aI7719
aI8470
aI8397
aI8412
aI7483
aI8135
aI7832
aI8480
aI7920
aI8872
aI8449
aI7892
aI8682
aI8156
aI7972
aI8450
aI9273
aI7319
aI8854
aI8046
aI8257
aI8719
aI8040
aI8076
aI7310
aI7955
aI8040
aI8650
aI8480
aI8435
aI7972
aI7906
aI8017
aI8114
aI8039
aI8008
aI8232
aI8742
aI8553
aI8789
aI9389
aI7523
aI8362
aI8072
aI8762
aI7902
aI8852
aI8986
aI8199
aI8552
aI8732
aI8958
aI7865
aI8072
aI8223
aI7845
aI7593
aI7237
aI7889
aI7890
aI7822
aI8949
aI7880
aI8787
aI7702
aI8315
aI7960
aI7849
aI8659
aI8782
aI7657
aI7485
aI7728
aI8459
aI7989
aI8402
aI8686
aI8230
aI7948
aI8849
aI7791
aI7769
aI7980
aI8018
aI8048
aI7826
aI7568
aI7800
aI8670
aI9191
aI7911
aI8540
aI8095
aI8575
aI9431
aI9167
aI8391
aI8023
aI8050
aI8643
aI7904
aI8269
aI8093
aI8288
aI8053
aI7491
aI8013
aI7676
aI8367
aI8160
aI8135
aI8939
aI8521
aI7677
aI8507
aI7701
aI7574
aI7595
aI8430
aI8793
aI9610
aI8387
aI7429
aI8417
aI7282
aI8453
aI8469
aI8510
aI7874
aI8280
aI7788
aI8432
aI8039
aI8201
aI8084
aI8103
aI7861
aI7696
aI9291
aI8976
aI7894
aI7707
aI7897
aI7818
aI7628
aI7770
aI8484
aI8752
aI8685
aI7727
aI9114
aI9592
aI8060
aI7740
aI8852
aI7920
aI8739
aI7974
aI7996
aI8550
aI7822
aI8744
aI7858
aI8873
aI7991
aI8244
aI7635
aI8135
aI7628
aI8150
aI8393
aI7872
aI7897
aI8639
aI8298
aI8400
aI8452
aI7931
aI8222
aI8153
aI8713
aI7383
aI8561
aI8733
aI8094
aI8579
aI7621
aI8430
aI8032
aI7682
aI7977
aI8921
aI8079
aI7511
aI8198
aI8383
aI8827
aI8444
aI8437
aI8378
aI7318
aI8401
aI7333
aI8418
aI7889
aI8090
aI8197
aI8585
aI8666
aI7667
aI7964
aI7793
aI8591
aI8492
aI7928
aI7554
aI7087
aI7760
aI8311
aI7826
aI8135
aI7589
aI8562
aI7885
aI8771
aI7822
aI7944
aI7714
aI8657
aI9222
aI9332
aI8474
aI8314
aI8421
aI8643
aI8746
aI8160
aI8512
aI7953
aI8202
aI7669
aI8667
aI7532
aI8218
aI8068
aI8737
aI8504
aI8621
aI7877
aI7644
aI8939
aI9062
aI8535
aI7870
aI8619
aI8253
aI8823
aI7883
aI7741
aI8207
aI8451
aI7954
aI7520
aI7482
aI8729
aI8463
aI8607
aI7754
aI7702
aI8221
aI9011
aI7808
aI8193
aI8814
aI7725
aI8913
aI7912
aI9223
aI7782
aI7646
aI8812
aI8968
aI8228
aI8008
aI8649
aI8430
aI8467
aI8364
aI7921
aI7404
aI8458
aI8904
aI8011
aI8167
aI8881
aI8682
aI8220
aI7725
aI8288
aI8552
aI8377
aI9716
aI8103
aI8139
aI7988
aI7567
aI7682
aI7865
aI8010
aI8156
aI8404
aI7998
aI8604
aI7891
aI8609
aI8056
aI7716
aI8717
aI7725
aI8046
aI8020
aI7967
aI8218
aI8507
aI8789
aI8060
aI8749
aI7449
aI8480
aI7778
aI7280
aI8451
aI7963
aI8455
aI8582
aI8637
aI8510
aI8533
aI7593
aI8164
aI7963
aI8300
aI8141
aI7925
aI8081
aI7194
aI7882
aI8247
aI9482
aI8046
aI8362
aI8916
aI7627
aI8030
aI8234
aI9090
aI7985
aI7251
aI8130
aI8463
aI8830
aI8890
aI7878
aI8140
aI7883
aI8530
aI7758
aI8059
aI7866
aI8478
aI8265
aI7613
aI8359
aI9236
aI7987
aI8235
aI8628
aI7964
aI7839
aI9172
aI8860
aI8410
aI8843
aI8041
aI8560
aI8655
aI8087
aI7903
aI8614
aI8404
aI8178
aI9072
aI8509
aI9120
aI8006
aI7821
aI8509
aI8367
aI8302
aI8888
aI8635
aI7830
aI8553
aI7821
aI8049
aI8846
aI7345
aI8713
aI7894
aI8000
aI8211
aI7953
aI7489
aI7631
aI8249
aI8888
aI8285
aI7774
aI7455
aI8815
aI8557
aI8505
aI9366
aI7846
aI8403
aI8445
aI8314
aI8181
aI7205
aI7746
aI8117
aI8416
aI8407
aI7512
aI7897
aI8383
aI8374
aI7766
aI7900
aI9029
aI8898
aI8081
aI7934
aI7584
aI8690
aI8201
aI8338
aI8747
aI7892
aI8402
aI8297
aI8907
aI8649
aI8099
aI8752
aI8072
aI7668
aI9181
aI8475
aI7932
aI7834
aI7630
aI8252
aI8394
aI9147
aI8006
aI8646
aI8080
aI7455
aI7632
aI8276
aI7970
aI7761
aI7201
aI8816
aI8296
aI8333
aI9052
aI8288
aI7461
aI7847
aI7781
aI8734
aI7932
aI7639
aI7924
aI8696
aI8779
aI7145
aI7855
aI7614
aI8106
aI8065
aI8089
aI8128
aI7979
aI9007
aI8607
aI7639
aI8585
aI8384
aI8675
aI8149
aI8554
aI8335
aI7538
asI2
(lp3
I463719
aI482902
aI499254
aI447158
aI479115
aI486142
aI503863
aI489268
aI527762
aI476666
aI499927
aI497227
aI502407
aI503583
aI491899
aI520778
aI491438
aI496315
aI513331
aI537398
aI479567
aI483467
aI492004
aI492973
aI485393
aI500208
aI521626
aI471815
aI473883
aI494032
aI498395
aI478864
aI515171
aI503488
aI489163
aI491974
aI482912
aI465389
aI472076
aI488294
aI491664
aI487020
aI485103
aI479146
aI494367
aI522074
aI494696
aI502534
aI513692
aI512692
aI453629
aI525593
aI472296
aI470363
aI527722
aI499317
aI481566
aI457049
aI496777
aI514330
aI465280
aI499048
aI512259
aI451146
aI491332
aI492883
aI482821
aI480050
aI493518
aI504107
aI487047
aI471720
aI470926
aI481484
aI507445
aI471990
aI479793
aI502723
aI473406
aI480181
aI464278
aI469901
aI467171
aI487882
aI517000
aI504553
aI490355
aI477079
aI495766
aI471469
aI502566
aI474519
aI495060
aI510463
aI499471
aI483410
aI531701
aI511518
aI460179
aI498456
aI505677
aI499362
aI532759
aI501533
aI495335
aI518168
aI515130
aI469993
aI478678
aI489314
aI499061
aI520290
aI503852
aI509288
aI482792
aI501667
aI474204
aI471534
aI514679
aI495019
aI486834
aI492181
aI496180
aI492803
aI529262
aI498067
aI516202
aI499802
aI458970
aI471223
aI495393
aI473315
aI468761
aI511380
aI485755
aI466694
aI489996
aI477398
aI459050
aI490184
aI502228
aI510915
aI490249
aI459631
aI472376
aI519163
aI488415
aI518370
aI508657
aI494159
aI490837
aI492824
aI488302
aI455670
aI498280
aI507077
aI505905
aI523849
aI461149
aI494109
aI479925
aI500817
aI492338
aI526233
aI475805
aI500771
aI528487
aI498197
aI507502
aI515335
aI487577
aI498396
aI503405
aI492887
aI496950
aI476780
aI487616
aI500951
aI456290
aI498638
aI484707
aI465609
aI474413
aI475922
aI469733
aI516474
aI502088
aI517009
aI505434
aI491547
aI462168
aI512868
aI488522
aI519287
aI471804
aI477840
aI503117
aI543415
aI555000
aI498345
aI499448
aI469509
aI457078
aI474863
aI504588
aI480886
aI487920
aI462130
aI466969
aI510322
aI515847
aI472974
aI505785
aI468573
aI501468
aI490299
aI485571
aI498388
aI492753
aI497857
aI507444
aI438850
aI455948
aI500880
aI476951
aI491125
aI499666
aI510104
aI493203
aI504972
aI520500
aI499973
aI553270
aI485467
aI491066
aI453511
aI476220
aI456885
aI499078
aI502775
aI489767
aI487098
aI493170
aI459772
aI501175
aI526046
aI491685
aI530097
aI473380
aI486915
aI488309
aI462495
aI501796
aI496225
aI493895
aI476932
aI525683
aI481732
aI484225
aI494022
aI463928
aI503720
aI511662
aI508279
aI455896
aI494679
aI503481
aI503668
aI505988
aI490454
aI493066
aI463941
aI481319
aI483283
aI472076
aI500531
aI498746
aI490950
aI469928
aI483859
aI472214
aI505011
aI504214
aI521355
aI509158
aI469639
aI540285
aI513786
aI494321
aI551032
aI480996
aI467401
aI488983
aI520096
aI478769
aI511732
aI451312
aI516008
aI489807
aI515484
aI495570
aI471709
aI504093
aI485782
aI513006
aI485010
aI495362
aI474939
aI490070
aI517285
aI517209
aI504103
aI452984
aI491110
aI484935
aI476302
aI511249
aI491072
aI497372
aI469781
aI447170
aI505941
aI486434
aI497705
aI517813
aI518699
aI499279
aI490106
aI510666
aI500289
aI473495
aI471822
aI498820
aI509485
aI519174
aI484044
aI500099
aI499310
aI485664
aI467965
aI457023
aI466388
aI500233
aI501394
aI511157
aI475523
aI481052
aI470627
aI487267
aI454835
aI459759
aI535729
aI461960
aI485985
aI489975
aI518639
aI496874
aI510759
aI478065
aI470718
aI511898
aI458463
aI506855
aI523969
aI462380
aI469479
aI496781
aI491963
aI514930
aI495286
aI471708
aI473534
aI522291
aI464342
aI502043
aI479849
aI473861
aI483419
aI467466
aI482699
aI496800
aI459689
aI483517
aI509191
aI504292
aI501754
aI482829
aI474311
aI522781
aI479041
aI520183
aI473146
aI525898
aI456007
aI483056
aI491159
aI510123
aI472238
aI461817
aI524436
aI520980
aI510476
aI473334
aI495967
aI506385
aI471887
aI481026
aI512604
aI495978
aI493374
aI505417
aI479216
aI522025
aI500919
aI499570
aI517165
aI461423
aI490577
aI488557
aI495404
aI480691
aI507288
aI483001
aI501887
aI478142
aI491448
aI492657
aI487842
aI504304
aI512211
aI478048
aI477838
aI504326
aI464011
aI536177
aI504470
aI502589
aI493820
aI495735
aI485683
aI481834
aI487601
aI513971
aI512517
aI491525
aI463071
aI501560
aI496076
aI498580
aI505150
aI472845
aI525366
aI513743
aI489486
aI462673
aI464140
aI511918
aI479167
aI435916
aI470298
aI479460
aI530490
aI518904
aI464960
aI513085
aI503909
aI479230
aI501150
aI485456
aI509538
aI515258
aI526774
aI459110
aI497016
aI513571
aI514311
aI471864
aI499941
aI484516
aI494361
aI480106
aI454397
aI492480
aI489158
aI496294
aI478309
aI531889
aI530942
aI532957
aI478869
aI502440
aI466704
aI487402
aI463254
aI503120
aI499288
aI496628
aI477924
aI483088
aI508294
aI477587
aI503509
aI510533
aI496818
aI507340
aI495896
aI499569
aI486363
aI520794
aI507917
aI544452
aI500082
aI517663
aI469648
aI514667
aI496142
aI487887
aI487460
aI511173
aI497009
aI489136
aI483034
aI521279
aI493711
aI498346
aI495973
aI464407
aI463736
aI486918
aI468616
aI469133
aI503803
aI527369
aI519555
aI511121
aI453391
aI493485
aI503033
aI456170
aI509168
aI491870
aI514780
aI489671
aI508327
aI520042
aI501162
aI518197
aI491792
aI492542
aI449080
aI483779
aI485847
aI490997
aI490824
aI507258
aI506097
aI505010
aI505037
aI486568
aI496658
aI491741
aI526733
aI468718
aI487231
aI470284
aI491348
aI518309
aI488390
aI457075
aI478468
aI480843
aI446854
aI524885
aI504664
aI486175
aI509474
aI478657
aI468274
aI486535
aI478499
aI499081
aI523797
aI515896
aI475440
aI485818
aI522102
aI456925
aI474440
aI493039
aI514409
aI477982
aI493915
aI535402
aI517480
aI511031
aI477337
aI527161
aI469849
aI513133
aI511336
aI492128
aI473736
aI457529
aI495596
aI482158
aI487955
aI499466
aI488285
aI502331
aI474193
aI501359
aI490036
aI462500
aI521178
aI518183
aI475447
aI479121
aI477452
aI501824
aI507129
aI505838
aI530751
aI498243
aI514959
aI514888
aI483185
aI467632
aI462699
aI480197
aI509301
aI486607
aI460055
aI480252
aI495405
aI508993
aI480183
aI506997
aI494970
aI491205
aI525993
aI534624
aI498373
aI486922
aI488127
aI500872
aI511146
aI499120
aI492291
aI476973
aI508753
aI466849
aI487924
aI472855
aI491185
aI486822
aI497047
aI529934
aI501045
aI467100
aI505956
aI466769
aI464153
aI476626
aI507260
aI500012
aI550677
aI475695
aI470063
aI487695
aI474752
aI472614
aI520988
aI485649
aI495358
aI492041
aI463328
aI489872
aI477250
aI491462
aI480487
aI494094
aI494872
aI470758
aI521638
aI524195
aI457366
aI460617
aI481880
aI472940
aI454485
aI480641
aI503134
aI505018
aI506422
aI482437
aI522800
aI548682
aI493852
aI462114
aI504390
aI490405
aI514391
aI493297
aI481447
aI493816
aI466458
aI495513
aI462003
aI497424
aI494768
aI497671
aI475455
aI506762
aI468871
aI504622
aI489667
aI487647
aI481547
aI491217
aI501922
aI512505
aI506978
aI485809
aI466373
aI493877
aI511950
aI441344
aI529459
aI504770
aI467383
aI506537
aI469083
aI488596
aI489417
aI477367
aI467939
aI527892
aI494610
aI472966
aI490113
aI495606
aI496881
aI514771
aI493992
aI475124
aI484869
aI501999
aI454347
aI512035
aI511423
aI517180
aI495868
aI535339
aI514617
aI476368
aI494030
aI437743
aI486833
aI496283
aI481036
aI462605
aI443611
aI491129
aI455516
aI493398
aI479853
aI453259
aI500794
aI486286
aI543710
aI490342
aI489331
aI476209
aI525474
aI517693
aI515747
aI498552
aI491262
aI536324
aI486144
aI499354
aI477948
aI486646
aI479179
aI492717
aI453087
aI518976
aI477457
aI512214
aI481551
aI493224
aI514519
aI518141
aI480251
aI475000
aI513737
aI521187
aI497461
aI482545
aI479811
aI502388
aI541751
aI481569
aI470694
aI472029
aI500591
aI486422
aI464743
aI478563
aI493774
aI501260
aI517809
aI483524
aI465166
aI496768
aI515525
aI488974
aI494517
aI494835
aI485307
aI527232
aI493733
aI521415
aI480739
aI484084
aI515482
aI506699
aI522643
aI470433
aI510964
aI501325
aI492742
aI505715
aI468877
aI496895
aI494516
aI467384
aI473304
aI479765
aI493867
aI489997
aI478140
aI498319
aI465473
aI507402
aI510197
aI530928
aI492697
aI486927
aI466867
aI485896
aI486587
aI465936
aI504093
aI491354
aI486039
aI492015
aI491969
aI459813
aI494485
aI498961
aI471255
aI494441
aI472087
aI457622
aI499234
aI508574
aI517214
aI509688
aI483366
aI490803
aI525864
aI453305
aI487758
aI492738
aI476846
aI496690
aI468016
aI501668
aI540868
aI498312
aI501863
aI498813
aI486935
aI499477
aI463802
aI510633
aI486865
aI480917
aI472070
aI457307
aI484586
aI517934
aI526036
aI501132
aI520180
aI519501
aI479143
aI481112
aI498779
aI522540
aI504713
aI460834
aI475852
aI528295
aI493202
aI515788
aI486789
aI512525
aI469893
aI515945
aI475272
aI499220
aI497950
aI464815
aI501065
aI485996
aI492182
aI523340
aI472989
aI486129
aI502029
aI483663
aI498944
aI488233
aI536375
aI502065
aI507126
aI482954
aI480281
aI512258
aI477982
aI478907
aI501414
aI499584
aI500358
aI530499
aI471879
aI520689
aI482738
aI469409
aI505288
aI486102
aI522591
aI522277
aI491134
aI494783
aI501487
aI496661
aI473477
aI487846
aI481776
aI550901
aI476502
aI512662
aI493417
aI483913
aI467159
aI474856
aI472081
aI509679
aI482606
aI504940
aI469045
aI486661
aI480910
aI501815
aI523300
aI458667
aI508872
aI512638
aI473668
aI497493
aI455696
aI461286
aI470887
aI514189
aI510444
aI475264
aI504952
aI488122
aI504699
aI466422
aI481045
aI511935
aI486573
aI505855
aI486773
aI469545
aI527307
aI470806
aI479979
aI478254
aI463071
aI471558
aI509993
aI512261
aI491276
aI505057
aI497825
aI478777
aI459886
aI523176
aI488448
aI464740
aI454441
aI444884
aI468335
aI505873
aI521509
aI476444
aI502525
aI497106
aI472657
aI465046
aI520619
aI473634
aI462429
aI457050
aI490500
aI514975
aI518978
aI520046
aI468160
aI478680
aI486352
aI483519
aI522152
aI493508
aI484873
aI476780
aI512052
aI520374
aI452659
aI492812
aI471678
aI485983
aI492921
aI501203
aI492137
aI487020
aI507965
aI490357
aI495860
aI481684
aI506407
aI495350
aI496478
aI509951
aI484734
aI460526
asI3
(lp4
I8336037
aI8417496
aI8611596
aI7985422
aI8189527
aI8369554
aI8516063
aI8336218
aI8453642
aI8367983
aI8535213
aI8463635
aI8497025
aI8451324
aI8282266
aI8651197
aI8316098
aI8328524
aI8533636
aI8863908
aI8225019
aI8311726
aI8315474
aI8312367
aI8325963
aI8696372
aI8665927
aI8429503
aI8616097
aI8460190
aI8324331
aI8362165
aI8550167
aI8627689
aI8360588
aI8307806
aI8263290
aI8265378
aI8305156
aI8351435
aI8213078
aI8333689
aI8375782
aI8374244
aI8421794
aI8852208
aI8360220
aI8723669
aI8480461
aI8366453
aI8143434
aI8607172
aI8444259
aI8317558
aI8540727
aI8387609
aI8259078
aI8110246
aI8400357
aI8435522
aI8274131
aI8293718
aI8638988
aI8308388
aI8322590
aI8355584
aI8405324
aI8373491
aI8457635
aI8490713
aI7963760
aI8399977
aI8202156
aI8209458
aI8580334
aI8505424
aI8285500
aI8581313
aI8193130
aI8392815
aI8181171
aI8531644
aI8268846
aI8442330
aI8441336
aI8435635
aI8393605
aI8471859
aI8370674
aI8256106
aI8616581
aI8276253
aI8514058
aI8471802
aI8543105
aI8365575
aI8588903
aI8644213
aI8198561
aI8514869
aI8350719
aI8244481
aI8829550
aI8576084
aI8320023
aI8530881
aI8536840
aI8249281
aI8508551
aI8304316
aI8481709
aI8503769
aI8746998
aI8405842
aI8323270
aI8717965
aI8391488
aI8453494
aI8468998
aI8368304
aI8374481
aI8339517
aI8487942
aI8492313
aI8780557
aI8517834
aI8576164
aI8538767
aI7953403
aI8393149
aI8464503
aI8478153
aI8205525
aI8451549
aI8371798
aI8227148
aI8346806
aI8313426
aI8254320
aI8330799
aI8387788
aI8721724
aI8389731
aI8040058
aI8242667
aI8455508
aI8428537
aI8847125
aI8403173
aI8266381
aI8360813
aI8439170
aI8540975
aI8058004
aI8374573
aI8613311
aI8449797
aI8673479
aI8150799
aI8413684
aI8289330
aI8596916
aI8537236
aI8633152
aI8328168
aI8595124
aI8571596
aI8545737
aI8629057
aI8385960
aI8344671
aI8311778
aI8543657
aI8413147
aI8399067
aI8238832
aI8371800
aI8331936
aI8087860
aI8475821
aI8573131
aI8290143
aI8342631
aI8226791
aI8401925
aI8653655
aI8440153
aI8666624
aI8487190
aI8369169
aI8226822
aI8727777
aI8408830
aI8569533
aI8261207
aI8199355
aI8682905
aI8789012
aI8717552
aI8588555
aI8440179
aI8186375
aI8117455
aI8377803
aI8362200
aI8316522
aI8275699
aI8210904
aI8167456
aI8487051
aI8756443
aI8115613
aI8551738
aI8129995
aI8467191
aI8390600
aI8326415
aI8680496
aI8405709
aI8379129
aI8317601
aI8051148
aI8144772
aI8551038
aI8310191
aI8389987
aI8353639
aI8591929
aI8304663
aI8416369
aI8497507
aI8775226
aI8581644
aI8330379
aI8301648
aI8093737
aI8244796
aI8198867
aI8379357
aI8442007
aI8458222
aI8221997
aI8310347
aI8311661
aI8352419
aI8607883
aI8434367
aI8458160
aI8250480
aI8284859
aI8475094
aI8162730
aI8497934
aI8321247
aI8539753
aI8373529
aI8599015
aI8245052
aI8500699
aI8304446
aI8136542
aI8404647
aI8623273
aI8667901
aI8227447
aI8232591
aI8467874
aI8505644
aI8344575
aI8386838
aI8371517
aI8282284
aI8449819
aI8234617
aI8120549
aI8533590
aI8577283
aI8462857
aI8479381
aI8385787
aI8279631
aI8368284
aI8532261
aI8590545
aI8528150
aI8335159
aI8789497
aI8556005
aI8541352
aI8839778
aI8293321
aI8112049
aI8454623
aI8466121
aI8252114
aI8207185
aI8167150
aI8651529
aI8342582
aI8627632
aI8309353
aI8549715
aI8626399
aI8348238
aI8609557
aI8410812
aI8442984
aI8252142
aI8312694
aI8468852
aI8640201
aI8437306
aI8266034
aI8577399
aI8297333
aI8213609
aI8617568
aI8355581
aI8655017
aI8272664
aI8091824
aI8464126
aI8432832
aI8435823
aI8518358
aI8390347
aI8346069
aI8469510
aI8503955
aI8418033
aI8372112
aI8239764
aI8484659
aI8563497
aI8513061
aI8426452
aI8436197
aI8440595
aI8410693
aI8381038
aI8108673
aI8283233
aI8327982
aI8389698
aI8483671
aI8309647
aI8256369
aI8435054
aI8328253
aI8269905
aI8249918
aI8681343
aI8218918
aI8214798
aI8240971
aI8559841
aI8627166
aI8628797
aI8385832
aI8131843
aI8394755
aI8482848
aI8639094
aI8627350
aI8127980
aI8098545
aI8508498
aI8336630
aI8504852
aI8437907
aI8154682
aI8450326
aI8712054
aI8360194
aI8415126
aI8448496
aI8574328
aI8330800
aI8276487
aI8346605
aI8522684
aI8167880
aI8308731
aI8544015
aI8509239
aI8460780
aI8294662
aI8235176
aI8485166
aI8477027
aI8454037
aI8296170
aI8569210
aI8250268
aI8303724
aI8276910
aI8432699
aI8235467
aI8200295
aI8528315
aI8499935
aI8659235
aI8195801
aI8462185
aI8477817
aI8106546
aI8285595
aI8506170
aI8566470
aI8492961
aI8366423
aI8390913
aI8752972
aI8613745
aI8479827
aI8508181
aI8348848
aI8177515
aI8461649
aI8330245
aI8332402
aI8366101
aI8248571
aI8368849
aI8149955
aI8474290
aI8402456
aI8487446
aI8423716
aI8204917
aI8369056
aI8435586
aI8545215
aI8250453
aI8809618
aI8537571
aI8523909
aI8469679
aI8384981
aI8496956
aI8261878
aI8386227
aI8578616
aI8501008
aI8145025
aI8267227
aI8591265
aI8294414
aI8532267
aI8374128
aI8228195
aI8665987
aI8271357
aI8480615
aI8194340
aI8135496
aI8386950
aI8172858
aI8043479
aI8399517
aI8160369
aI8760107
aI8543814
aI8228684
aI8640876
aI8575531
aI8278491
aI8399821
aI8315095
aI8618046
aI8275917
aI8647631
aI8242056
aI8344182
aI8446425
aI8536078
aI8156534
aI8557691
aI8300158
aI8410656
aI8555082
aI8039373
aI8251982
aI8139425
aI8276183
aI8351259
aI8537298
aI8793058
aI8588431
aI8213292
aI8514173
aI8268371
aI8520351
aI8034531
aI8395594
aI8317695
aI8417283
aI8166206
aI8420487
aI8419193
aI8383234
aI8443367
aI8485656
aI8441246
aI8515506
aI8557448
aI8308836
aI8454775
aI8533891
aI8492309
aI8603364
aI8603162
aI8733756
aI8364179
aI8595179
aI8356825
aI8318606
aI8510121
aI8690720
aI8193391
aI8461234
aI8426270
aI8718961
aI8357051
aI8274918
aI8507059
aI8387383
aI8142349
aI8431921
aI8242965
aI8307628
aI8583101
aI8875145
aI8507745
aI8567358
aI8247581
aI8497652
aI8591914
aI8248527
aI8422380
aI8506354
aI8805538
aI8345989
aI8501989
aI8412681
aI8569024
aI8594945
aI8256786
aI8333094
aI7969997
aI8319782
aI8388148
aI8438632
aI8324110
aI8494820
aI8334273
aI8481589
aI8383017
aI8236150
aI8525391
aI8402737
aI8556761
aI8039820
aI8219546
aI8120267
aI8281470
aI8362601
aI8378195
aI8143299
aI8345079
aI8247631
aI7912780
aI8556581
aI8416343
aI8243936
aI8502241
aI8119298
aI8096048
aI8386504
aI8528054
aI8319983
aI8635640
aI8509275
aI8109287
aI8372130
aI8492649
aI8120360
aI8239538
aI8296604
aI8520095
aI8368509
aI8397512
aI8726548
aI8697684
aI8399369
aI8259838
aI8492508
aI8156125
aI8389241
aI8539682
aI8435398
aI8422644
aI8242989
aI8318845
aI8395198
aI8441629
aI8365949
aI8313951
aI8318024
aI8516903
aI8419184
aI8502155
aI8267158
aI8519041
aI8794104
aI8339536
aI8345302
aI8416478
aI8393751
aI8404796
aI8441497
aI8583932
aI8375910
aI8689343
aI8437644
aI8431381
aI8485887
aI8225332
aI8309209
aI8573083
aI8671186
aI8307362
aI8425469
aI8309878
aI8254551
aI8255949
aI8558706
aI8327132
aI8413215
aI8521304
aI8790601
aI8267076
aI8341170
aI8309921
aI8481492
aI8475044
aI8560120
aI8496010
aI8270607
aI8390475
aI8444056
aI8476313
aI8481442
aI8338465
aI8362756
aI8308342
aI8760857
aI8548030
aI8343877
aI8583129
aI8156256
aI8335451
aI8279551
aI8480975
aI8515912
aI8777392
aI8232719
aI8219918
aI8337565
aI8289597
aI8167373
aI8555558
aI8122442
aI8420556
aI8428982
aI8022694
aI8245641
aI8236596
aI8385713
aI8428886
aI8302579
aI8337041
aI8376147
aI8404451
aI8474965
aI8186552
aI8193470
aI8457116
aI8174841
aI8179215
aI8407792
aI8670594
aI8394052
aI8446285
aI8473046
aI8612311
aI8805401
aI8374903
aI8247475
aI8315829
aI8406495
aI8547628
aI8475765
aI8319204
aI8578170
aI8164459
aI8377069
aI8181785
aI8439036
aI8363665
aI8362846
aI8221837
aI8466000
aI8340239
aI8563380
aI8381574
aI8384909
aI8305684
aI8420788
aI8517350
aI8603216
aI8470061
aI8280052
aI8273761
aI8519512
aI8607053
aI8069326
aI8808895
aI8388306
aI8396258
aI8512422
aI8350160
aI8264431
aI8595747
aI8146153
aI8192334
aI8749806
aI8467261
aI8324727
aI8370534
aI8451124
aI8284051
aI8532461
aI8357290
aI8284156
aI8456314
aI8375444
aI8329598
aI8597780
aI8511122
aI8486713
aI8360466
aI8637036
aI8426029
aI8400532
aI8388962
aI8001867
aI8370817
aI8419885
aI8475265
aI8319998
aI8094915
aI8338938
aI7999047
aI8291011
aI8456105
aI8241822
aI8553508
aI8313870
aI8897426
aI8446172
aI8527855
aI8473663
aI8588396
aI8569622
aI8454671
aI8585481
aI8240545
aI8719211
aI8415864
aI8408771
aI8388790
aI8316041
aI8291889
aI8373150
aI8168200
aI8413742
aI8364628
aI8559451
aI8426089
aI8366226
aI8528039
aI8663662
aI8295460
aI8339729
aI8374612
aI8668827
aI8312044
aI8071550
aI8360503
aI8381793
aI8752848
aI8328948
aI8149877
aI8111860
aI8497061
aI8366925
aI8317016
aI8454841
aI8309912
aI8418480
aI8787397
aI8382792
aI8153694
aI8384016
aI8476061
aI8405888
aI8480692
aI8223234
aI8289679
aI8748347
aI8392590
aI8411423
aI8498453
aI8390947
aI8428255
aI8591556
aI8649038
aI8230477
aI8459970
aI8501203
aI8293415
aI8632539
aI8243385
aI8460641
aI8359926
aI8222899
aI8314758
aI8219838
aI8375759
aI8439012
aI8268724
aI8413847
aI8106320
aI8822474
aI8464196
aI8458871
aI8475518
aI8410595
aI8150807
aI8269559
aI8465005
aI8309539
aI8657813
aI8542887
aI8240961
aI8287005
aI8362443
aI8259688
aI8617574
aI8588027
aI8314046
aI8413938
aI8092596
aI8097225
aI8556316
aI8450946
aI8585657
aI8601003
aI8226458
aI8401076
aI8650831
aI8071236
aI8247579
aI8452658
aI8286692
aI8430501
aI8268573
aI8619391
aI8712281
aI8493345
aI8502985
aI8507789
aI8394569
aI8332234
aI8270446
aI8290982
aI8319867
aI8311693
aI8182215
aI8207913
aI8438458
aI8622688
aI8711307
aI8578122
aI8695971
aI8424480
aI8412146
aI8299227
aI8386567
aI8568001
aI8521888
aI8292044
aI8174646
aI8589283
aI8338295
aI8611616
aI8502213
aI8456032
aI8219316
aI8546942
aI8353660
aI8456523
aI8459766
aI8188161
aI8461663
aI8460421
aI8239379
aI8712958
aI8296091
aI8432429
aI8441824
aI8165964
aI8452444
aI8276700
aI8597227
aI8229295
aI8345436
aI8307727
aI8351392
aI8486491
aI8249979
aI8446271
aI8443967
aI8459396
aI8541189
aI8600421
aI8122182
aI8644380
aI8201911
aI8232049
aI8356345
aI8503554
aI8634918
aI8758587
aI8386180
aI8669889
aI8466101
aI8291183
aI8249049
aI8272893
aI8398611
aI8910193
aI8537915
aI8634844
aI8561831
aI8299845
aI8359338
aI8303784
aI8357761
aI8369130
aI8341711
aI8502500
aI8229562
aI8484114
aI8459601
aI8521735
aI8576083
aI8159143
aI8522812
aI8502663
aI8273801
aI8454435
aI8144450
aI8294608
aI8089579
aI8633478
aI8508787
aI8341074
aI8549331
aI8471281
aI8445778
aI8211288
aI8456861
aI8657150
aI8283466
aI8523515
aI8331730
aI8413155
aI8739488
aI8209662
aI8341034
aI8167098
aI8244570
aI8208870
aI8447332
aI8466168
aI8234516
aI8611893
aI8414955
aI8302814
aI8160085
aI8644526
aI8210179
aI8217688
aI8172594
aI8133057
aI8074303
aI8520306
aI8536916
aI8431754
aI8377011
aI8267172
aI8306786
aI8281716
aI8566825
aI8409040
aI8234563
aI8291600
aI8132702
aI8543870
aI8757810
aI8651052
aI8209838
aI8235747
aI8691819
aI8525431
aI8448722
aI8375765
aI8386503
aI8262995
aI8580696
aI8418035
aI8093452
aI8380163
aI8183931
aI8534488
aI8524956
aI8455830
aI8441726
aI8257503
aI8453447
aI8235851
aI8626077
aI8281496
aI8451722
aI8459423
aI8580423
aI8508258
aI8277851
aI8121809
asI4
(lp5
I27682391
aI27772341
aI28460665
aI27469881
aI27445493
aI27630621
aI27563528
aI28120428
aI27839089
aI28175733
aI27697508
aI27872336
aI28216070
aI27602116
aI27503619
aI27780278
aI27627171
aI28001540
aI27758302
aI28224584
aI27710718
aI27620539
aI27628304
aI27680500
aI27725486
aI28281461
aI28140775
aI28081858
aI28413945
aI27924174
aI27971536
aI28070686
aI27752956
aI28115063
aI27667074
aI27935921
aI27391476
aI27644027
aI27994426
aI27547324
aI27706256
aI27830645
aI27692557
aI27994592
aI27745824
aI28501525
aI27429544
aI28479683
aI27772685
aI27444894
aI27494893
aI27797223
aI28402044
aI27732538
aI27469716
aI27543050
aI27487260
aI27607686
aI27494207
aI27697068
aI27637025
aI27727270
aI28279873
aI28039206
aI27815574
aI27953909
aI27675952
aI27520688
aI28018392
aI28124015
aI26854121
aI27826449
aI27672374
aI27269791
aI28488410
aI28182077
aI27439899
aI28108411
aI27564310
aI27563106
aI27316610
aI28073818
aI27520401
aI27816221
aI27712922
aI28113203
aI27948882
aI27849021
aI27790218
aI27725974
aI28020306
aI27888227
aI27891498
aI27709075
aI27976327
aI27762654
aI28026277
aI27916745
aI27988375
aI27834538
aI27166074
aI27530665
aI28436254
aI27876445
aI27450220
aI27559503
aI27986101
aI28075021
aI27971725
aI27408811
aI27985640
aI27506506
aI28436591
aI27890787
aI27757731
aI28596102
aI28195945
aI28058735
aI27724850
aI27797794
aI27685918
aI27333064
aI28250261
aI27947173
aI28324064
aI27713225
aI27798322
aI27928607
aI27116488
aI28176532
aI27976074
aI28096796
aI27845659
aI27898317
aI27931021
aI27432351
aI27679484
aI27856555
aI27622609
aI27577804
aI27684474
aI28258216
aI27538366
aI27181989
aI27994608
aI27802104
aI27938255
aI28439833
aI27600834
aI27417813
aI27879976
aI27641242
aI28498501
aI27249490
aI27384203
aI28009716
aI28000766
aI28024369
aI27880518
aI27466948
aI27366174
aI28047772
aI27849757
aI27729612
aI27489620
aI27819405
aI28082511
aI27833489
aI27937542
aI27648453
aI28009064
aI27427193
aI28130342
aI27757362
aI27437692
aI27532690
aI27905185
aI27606267
aI27708878
aI28161414
aI28260627
aI27991294
aI27866143
aI27530110
aI27789969
aI28147389
aI27566234
aI28404939
aI27679542
aI27455377
aI27583860
aI28193901
aI27518401
aI27931618
aI27693909
aI27432689
aI27831318
aI28327552
aI27731118
aI27976720
aI27577892
aI27279501
aI27516052
aI28239434
aI27383948
aI27999215
aI27537992
aI27640907
aI27442661
aI27728747
aI28050529
aI27176920
aI28065381
aI27595221
aI27804772
aI27771511
aI27441900
aI27776899
aI27588985
aI27821948
aI27161716
aI27507255
aI27104602
aI28115815
aI27370831
aI27340746
aI27337235
aI27908917
aI27600236
aI27513822
aI27851586
aI28198484
aI27737426
aI27511261
aI27748196
aI27211676
aI27918658
aI27621532
aI27770939
aI27808685
aI27790738
aI27734454
aI27832453
aI27592157
aI27596941
aI27975245
aI27891530
aI27515604
aI27778152
aI27494483
aI27702562
aI27748630
aI28141314
aI27255898
aI28118590
aI27817251
aI28031789
aI27911628
aI28282230
aI27409912
aI26911304
aI27799432
aI28364772
aI28030914
aI27680900
aI27680804
aI27419643
aI27750994
aI27845944
aI27850854
aI27640976
aI27504983
aI27843775
aI27165128
aI27571390
aI27915205
aI27627913
aI27899448
aI27966524
aI27993005
aI27639858
aI27705860
aI27637548
aI27708627
aI27690039
aI27477916
aI27913619
aI27819825
aI28053420
aI28066099
aI27809703
aI27815724
aI28002631
aI27632767
aI27230690
aI27192047
aI27893143
aI28120589
aI27702563
aI28343085
aI27727810
aI28289838
aI28029166
aI27768338
aI27903328
aI27875058
aI27830399
aI27469037
aI27287758
aI27934686
aI28169810
aI27591988
aI27700245
aI28059309
aI27405973
aI27573453
aI28148735
aI27932920
aI28123141
aI28126421
aI27583746
aI27985010
aI28038435
aI27788012
aI27896568
aI27288013
aI27532814
aI27699447
aI27620550
aI27484359
aI27887244
aI27755020
aI27777595
aI27781881
aI27746192
aI28099433
aI27699339
aI27595126
aI27987935
aI27714959
aI27687984
aI27375340
aI27687954
aI27929997
aI27798921
aI27827511
aI27991261
aI27967614
aI27797662
aI28262524
aI27630385
aI27996137
aI27781679
aI26982078
aI27592665
aI28265047
aI28368024
aI28118273
aI27974077
aI27477450
aI27571604
aI28250351
aI28076049
aI28171741
aI27773478
aI27133376
aI27934929
aI27669173
aI27622352
aI28115890
aI27356389
aI27652429
aI28357810
aI27918777
aI28025028
aI28191446
aI28323790
aI27563588
aI27899473
aI27928460
aI27853492
aI27876947
aI27584198
aI28435254
aI28300244
aI28450681
aI27410078
aI27402296
aI27637888
aI27924906
aI27703562
aI27791842
aI27649926
aI27679474
aI27546186
aI27356691
aI27477536
aI28028893
aI27484019
aI27409684
aI27877836
aI28178684
aI27523006
aI27841040
aI27878607
aI27190797
aI27564994
aI27763261
aI28303618
aI27815302
aI27500978
aI28029741
aI28298411
aI28144022
aI27867798
aI27496404
aI27690443
aI26931006
aI28264668
aI27718210
aI27697778
aI27507162
aI27040521
aI27557674
aI27664489
aI28025745
aI27816158
aI28002624
aI27685803
aI27014114
aI28083167
aI28294616
aI27495438
aI27769667
aI28320301
aI27791158
aI28330154
aI27707577
aI27845460
aI28326135
aI27412533
aI28006550
aI27611925
aI27908069
aI26909311
aI27764074
aI28091102
aI27309167
aI27837110
aI27244500
aI27217057
aI27910825
aI27038111
aI28160190
aI27683700
aI27475880
aI27653848
aI27194896
aI27414021
aI28048031
aI27370292
aI27969468
aI27826437
aI27691618
aI27964310
aI28190000
aI27822696
aI27647122
aI27738255
aI28129132
aI27041865
aI27891561
aI27538575
aI27484167
aI27622781
aI27652501
aI27278722
aI28222604
aI27792017
aI27450836
aI28199854
aI27275035
aI27429893
aI26914821
aI27310658
aI27552225
aI27993690
aI28162322
aI27868566
aI27535415
aI28011591
aI27805492
aI27941283
aI27442138
aI27625270
aI27866286
aI27706179
aI27341964
aI27867046
aI27651771
aI27858964
aI27636456
aI27963949
aI28041766
aI27797860
aI28132910
aI27479110
aI27910446
aI27766048
aI27742476
aI27772626
aI28051669
aI28103551
aI28011538
aI28054027
aI27403090
aI27808545
aI27924073
aI28135453
aI27119167
aI27905334
aI27840991
aI28387261
aI27951561
aI27575453
aI28035258
aI27974048
aI27774005
aI28058443
aI27673389
aI27559584
aI28459769
aI28443184
aI27665452
aI28017222
aI27791287
aI28004490
aI28077295
aI27922497
aI28060673
aI28082178
aI28158246
aI27599739
aI27991529
aI27237163
aI27745508
aI28188819
aI27583724
aI27636777
aI27088751
aI27815933
aI27628561
aI28228544
aI27696129
aI27956787
aI27597320
aI27598953
aI27594947
aI27526145
aI27894523
aI27748247
aI27889903
aI26944123
aI27687787
aI27388383
aI27642999
aI27368857
aI27548481
aI27883978
aI27774276
aI27351973
aI27053326
aI27736712
aI27365528
aI27429738
aI27699571
aI26969271
aI27223924
aI27665043
aI28172239
aI27333525
aI27544190
aI27599260
aI27375534
aI27978378
aI27650970
aI27474224
aI27457736
aI27588997
aI28160484
aI27966416
aI27835631
aI27780247
aI28304350
aI27372669
aI27602989
aI27917256
aI27501504
aI27617087
aI27997941
aI27677985
aI27779522
aI27950596
aI27379774
aI28033048
aI27767237
aI27584724
aI27527512
aI27504316
aI28391343
aI27353287
aI27736901
aI27697443
aI27365630
aI28447516
aI27956022
aI27762658
aI27863906
aI27356554
aI27759911
aI28037075
aI27741336
aI27788676
aI28049992
aI27512017
aI27700659
aI28105729
aI27734850
aI27944969
aI27894881
aI28323215
aI27729825
aI27707802
aI27720618
aI27579203
aI27203661
aI27694986
aI27631811
aI27957091
aI27814005
aI28231981
aI27490688
aI27937114
aI27605804
aI27698810
aI27444902
aI28065703
aI28344786
aI27826586
aI27483809
aI28015022
aI27903374
aI28233101
aI27464462
aI27681837
aI27451386
aI28557638
aI27956604
aI27870929
aI28068432
aI27433579
aI28227674
aI27450397
aI27887482
aI28148547
aI27944518
aI27423005
aI27354749
aI27536886
aI27358854
aI27874772
aI28097624
aI27031088
aI27557996
aI28049897
aI27306358
aI27667448
aI27353666
aI27757008
aI28123995
aI27610293
aI27811605
aI27800480
aI27795336
aI28004968
aI27620122
aI27476507
aI27948396
aI27479893
aI27506549
aI27889364
aI28528468
aI27582748
aI27880637
aI28271253
aI28215075
aI28183475
aI27658537
aI27776333
aI27180417
aI27909040
aI27961056
aI27728666
aI27787372
aI28489634
aI27558094
aI27695595
aI27669372
aI28003521
aI27460753
aI27696692
aI27269490
aI27600132
aI27888637
aI28003431
aI27724092
aI27696214
aI27741893
aI27625514
aI27805017
aI27864181
aI27817129
aI27508657
aI27828206
aI27646758
aI28273769
aI27899635
aI28330210
aI27790467
aI27803628
aI27666741
aI27817513
aI27411902
aI28247305
aI27581150
aI27648966
aI28129264
aI27570332
aI27921937
aI27407766
aI27672081
aI27584403
aI27656656
aI27432906
aI27614400
aI27883950
aI27768423
aI27981241
aI27771944
aI27803766
aI27447023
aI27540534
aI27874699
aI27624717
aI28173107
aI27889894
aI27967948
aI28063325
aI27962493
aI28166702
aI27972142
aI27616763
aI27860364
aI27540286
aI27213249
aI27771932
aI27624077
aI27766289
aI27644652
aI28209969
aI28175133
aI28110945
aI28131654
aI28017219
aI28228082
aI27589610
aI28327391
aI27218723
aI27913619
aI27680981
aI27782829
aI28125657
aI27554773
aI27491719
aI27864112
aI28186612
aI27758327
aI27910900
aI27661468
aI27977593
aI28076957
aI28179227
aI27818106
aI27512080
aI27474966
aI27504877
aI28145711
aI27114851
aI27128068
aI27377943
aI27240917
aI28262529
aI27871272
aI27154508
aI27462904
aI28065226
aI28043390
aI27730448
aI28325508
aI27779866
aI27943686
aI28344345
aI27915742
aI27729745
aI27639954
aI28018466
aI27507119
aI27704288
aI27850549
aI27530953
aI28456970
aI27650552
aI27367657
aI28144412
aI27769581
aI27673861
aI28240666
aI28229574
aI27678893
aI27758135
aI27960387
aI27414104
aI28118202
aI27871569
aI27792301
aI27836287
aI27500492
aI27724259
aI27688905
aI27567760
aI27606446
aI27735884
aI27966247
aI27426809
aI28675701
aI27892424
aI27567425
aI28340266
aI27533781
aI27524945
aI27375120
aI27843656
aI27906241
aI28281160
aI27989181
aI27556464
aI27366612
aI27844994
aI27689486
aI28252462
aI27988320
aI27742488
aI28083651
aI27092854
aI27651528
aI27765831
aI27718478
aI27888720
aI27904518
aI27369361
aI27713186
aI28100103
aI27269009
aI27656266
aI27974261
aI27456387
aI27828825
aI27806665
aI28114481
aI28256504
aI27782883
aI27662682
aI28020934
aI27750685
aI27080005
aI27540758
aI27375070
aI27728310
aI27569704
aI27864147
aI27948436
aI27564021
aI27962302
aI28248146
aI27955535
aI28462061
aI27585567
aI27683512
aI27950619
aI27513330
aI28103010
aI27387214
aI27839266
aI27372003
aI27457531
aI27553685
aI27727193
aI28353334
aI27642786
aI27582017
aI27612807
aI27915617
aI27592483
aI27932330
aI27523268
aI27680394
aI27737020
aI27471809
aI28328033
aI27817301
aI27690807
aI27894267
aI27567377
aI27396799
aI27350949
aI27932694
aI27200056
aI27875052
aI27480640
aI27817244
aI27914496
aI27111882
aI28250702
aI27864473
aI27751239
aI28094301
aI27784510
aI27648330
aI28080092
aI27669594
aI27621346
aI27469176
aI27879308
aI28473422
aI28147176
aI27435801
aI28574408
aI27708859
aI27199106
aI27766442
aI27858488
aI27881275
aI28190550
aI28387909
aI28105050
aI28288832
aI27618186
aI28030911
aI27834344
aI27890251
aI27316637
aI27939898
aI27756552
aI27677249
aI28444549
aI28315157
aI28099508
aI28286935
aI27577359
aI28140890
aI27884616
aI27674565
aI27961186
aI27746007
aI27971963
aI27093408
aI28023464
aI27920690
aI27618470
aI27537645
aI28269702
aI27490841
aI27679413
aI28180994
aI28399446
aI27798688
aI28190068
aI28011302
aI28197608
aI28068299
aI27672549
aI27905691
aI27414237
aI28046646
aI27455414
aI27655362
aI27888284
aI27362636
aI28059179
aI28229921
aI27916741
aI27721385
aI27843107
aI27365219
aI27369758
aI27708970
aI27635752
aI27492385
aI27870024
aI28109870
aI28188709
aI27398785
aI27071554
aI27747776
aI27728692
aI27908661
aI27682334
aI27633974
aI27531851
aI26825757
aI27789101
aI28105163
aI28159080
aI27489925
aI27223619
aI28614263
aI28410055
aI27788510
aI27997625
aI27639154
aI27307073
aI27802415
aI27921365
aI27776505
aI27693080
aI27387704
aI28072693
aI27945214
aI27704780
aI27565645
aI27409611
aI27803511
aI27706465
aI28068144
aI27868844
aI27805425
aI27868756
aI28296851
aI27690759
aI27794954
aI27436159
asI5
(lp6
I29194094
aI29390540
aI29736100
aI29842267
aI29418572
aI29417223
aI29328883
aI29764699
aI29784222
aI30039990
aI29521213
aI29677151
aI29969815
aI29061140
aI29963150
aI29272835
aI29670358
aI29796230
aI29113219
aI29359161
aI29935433
aI29717987
aI29601815
aI29747041
aI29675082
aI29276481
aI29725604
aI29872578
aI29688446
aI29797003
aI29992542
aI30002219
aI29479364
aI29673872
aI29569080
aI29815387
aI29226890
aI29562645
aI29522574
aI29187590
aI30111444
aI29764332
aI29775124
aI29938016
aI29313897
aI29747837
aI29332205
aI29863509
aI29529768
aI29692400
aI29686156
aI29485805
aI30126588
aI29629863
aI29403620
aI29345095
aI29554241
aI29715185
aI29071878
aI29595549
aI29466416
aI29582759
aI29641640
aI30171008
aI29695338
aI29810923
aI29606461
aI29635508
aI30161802
aI29785005
aI29527816
aI29885066
aI29944913
aI29373314
aI29942040
aI29486700
aI29333797
aI29923689
aI29885272
aI29048464
aI29400426
aI29147930
aI29425361
aI29420135
aI29485768
aI29945448
aI29818198
aI29690119
aI29840397
aI29623363
aI29784667
aI30263930
aI29782515
aI29664984
aI29241027
aI29750398
aI29916623
aI29177472
aI29719613
aI29661952
aI29136439
aI30178024
aI29663660
aI29531978
aI29648716
aI29540875
aI29727163
aI30010174
aI29756960
aI29468949
aI29882493
aI29612378
aI29733031
aI29916989
aI29980604
aI29729479
aI29326312
aI29849978
aI29235880
aI29720847
aI29572827
aI29404868
aI29733697
aI29442106
aI29574043
aI29464857
aI29332054
aI29785643
aI29766881
aI29594092
aI29360139
aI29778051
aI29872404
aI30001937
aI29656019
aI29480002
aI29869273
aI29585121
aI29443700
aI29818760
aI30156152
aI29886795
aI29564482
aI29197896
aI30030166
aI29566397
aI30017635
aI29402713
aI29679012
aI29904098
aI29783507
aI29534796
aI29889576
aI29639466
aI29532166
aI29517266
aI29833174
aI29531005
aI29639307
aI29600431
aI29535049
aI29482470
aI29813410
aI29500590
aI29298169
aI29255147
aI29769957
aI29296963
aI29352072
aI29699690
aI30065744
aI29831212
aI29896966
aI29926597
aI29364710
aI29696467
aI29785992
aI29587210
aI30163594
aI29865907
aI29474866
aI29568358
aI29495881
aI29742429
aI29483728
aI29372386
aI29358718
aI29839324
aI29588150
aI29343748
aI29490671
aI29599805
aI29176174
aI29909682
aI29472514
aI29725269
aI29101772
aI29489949
aI29206937
aI29596428
aI29401389
aI29310657
aI29724937
aI30255594
aI29466077
aI29787566
aI29394969
aI29865862
aI29562249
aI29492098
aI29100776
aI29748596
aI29626344
aI29907671
aI29537370
aI29761192
aI29277330
aI28820832
aI29217560
aI29879125
aI29147556
aI29591958
aI29110875
aI29816487
aI29292304
aI29396164
aI29318631
aI29658324
aI29629319
aI29277640
aI29675282
aI29195424
aI29823379
aI29412383
aI30244795
aI29425551
aI29997607
aI29846696
aI29753336
aI29338012
aI29196972
aI29703393
aI29772847
aI29484451
aI29405238
aI29430119
aI29495735
aI29653509
aI29414252
aI29230837
aI29602688
aI30116751
aI29862032
aI29076311
aI29972025
aI29714155
aI29847145
aI29724510
aI30017569
aI29572289
aI28887184
aI29988440
aI29898876
aI29398313
aI29835722
aI29691712
aI29367478
aI29707045
aI29974748
aI29729854
aI29391245
aI29648935
aI29523084
aI29304171
aI30176030
aI29589331
aI29166623
aI29692100
aI29674356
aI29600745
aI29514739
aI29696766
aI29468164
aI29418396
aI29812897
aI29427153
aI29012937
aI29297718
aI29230440
aI29351987
aI29522829
aI29873345
aI29689046
aI29452976
aI29381125
aI29452858
aI30095002
aI29369791
aI29373815
aI29488863
aI29729702
aI29827906
aI29504228
aI29666712
aI29743074
aI29592026
aI29867582
aI29593424
aI29030868
aI29622273
aI29641253
aI29407471
aI29723411
aI29160278
aI29524655
aI30031831
aI29846538
aI29676107
aI29792700
aI30124408
aI29583501
aI29953704
aI29666869
aI29615886
aI29166256
aI29440924
aI29508417
aI29289956
aI29581096
aI29536795
aI29758138
aI29934459
aI29616402
aI29647589
aI29814735
aI29961003
aI29312593
aI29288986
aI29704432
aI29441088
aI29770898
aI29139174
aI30029083
aI29686319
aI29737589
aI29811588
aI30089184
aI29634725
aI29828182
aI30284256
aI29611045
aI29633593
aI29683142
aI29209170
aI29688187
aI29672791
aI29817518
aI29926008
aI29857602
aI29746492
aI29539330
aI29818314
aI29450818
aI30286848
aI29956883
aI29272275
aI29552469
aI29367545
aI29537660
aI30075477
aI29207038
aI29386633
aI29807695
aI29688949
aI30141114
aI30025795
aI30007703
aI29565640
aI29643520
aI29461057
aI29619171
aI29875659
aI29713982
aI30663596
aI30073252
aI30233638
aI29613283
aI29258002
aI29602232
aI29522191
aI29676323
aI29816472
aI29395972
aI29322684
aI29474084
aI29206407
aI29645870
aI30128315
aI29466710
aI29238523
aI30067905
aI29646336
aI29545531
aI29489008
aI29507104
aI29348232
aI29629572
aI29312540
aI30061304
aI29314169
aI29510071
aI29933606
aI29925571
aI29609013
aI28932850
aI29453052
aI29387216
aI29186537
aI29546709
aI29684575
aI29389719
aI29435843
aI29198794
aI29502587
aI29756229
aI29408243
aI29778223
aI29860487
aI29747263
aI29252331
aI29699565
aI30029596
aI29002371
aI30097793
aI29647627
aI29151935
aI30163685
aI29619731
aI29737138
aI30054340
aI29041300
aI29693196
aI29241443
aI29900538
aI29330054
aI29604444
aI29677841
aI29410745
aI29381446
aI29194561
aI29246190
aI29335573
aI29278430
aI30101701
aI29912905
aI29623711
aI29615574
aI29069937
aI29673264
aI29649897
aI29926643
aI29261213
aI29500594
aI29708341
aI29576070
aI29901514
aI29766265
aI29481212
aI29931622
aI29403202
aI29308418
aI29109104
aI29660775
aI29712363
aI29325003
aI29489194
aI29491290
aI29725781
aI29629628
aI29159571
aI30088639
aI29538002
aI29431968
aI29242869
aI29710919
aI29496161
aI30010768
aI29327734
aI29461490
aI29580599
aI29648867
aI30145878
aI29517020
aI29913990
aI29542233
aI30012990
aI29789313
aI29565920
aI29627005
aI29452950
aI29852741
aI29310847
aI29896862
aI29981411
aI29528181
aI29918232
aI29519564
aI29752930
aI29403715
aI29248923
aI29615525
aI29367241
aI29418714
aI29684806
aI29773176
aI29261553
aI29993899
aI29481533
aI29709986
aI29293946
aI29439551
aI29748101
aI29439313
aI30077055
aI29840404
aI29459743
aI29614187
aI30108111
aI29613285
aI29786781
aI29265344
aI30240271
aI29952065
aI29850654
aI29607480
aI29685085
aI29801602
aI29596820
aI30102080
aI29572849
aI29550990
aI29442924
aI29475991
aI29729299
aI29259696
aI29820524
aI29714182
aI30142271
aI29639919
aI29331057
aI30152433
aI29497385
aI29853140
aI29642069
aI29546097
aI29224945
aI29623571
aI29619699
aI29676452
aI29508364
aI30015108
aI29867240
aI29471076
aI29870460
aI29670191
aI29853157
aI29118127
aI29596898
aI29773805
aI29705326
aI29542372
aI29646702
aI29459627
aI29305330
aI29767156
aI29776008
aI29388369
aI29499338
aI29552628
aI29733276
aI29548377
aI28985456
aI29207198
aI29828815
aI30128335
aI29734184
aI29586843
aI29619426
aI29809386
aI29948049
aI29869660
aI29570412
aI29042780
aI29930652
aI29185962
aI29743261
aI29848172
aI29851541
aI29803915
aI29679399
aI29486579
aI29744562
aI29783564
aI29900938
aI29705008
aI29214032
aI29456771
aI29620756
aI29817000
aI29763826
aI29416505
aI29804647
aI29447440
aI29171943
aI29794105
aI29797248
aI29512450
aI29814021
aI29304913
aI29999195
aI30268359
aI29759136
aI29686635
aI29804367
aI29334823
aI29653007
aI29745652
aI29727899
aI30049042
aI28970967
aI29402089
aI29531176
aI29188821
aI29972767
aI29617548
aI29410298
aI29432652
aI29785777
aI30008910
aI29432575
aI29548295
aI29786232
aI30088063
aI29583945
aI29695911
aI29545894
aI29714869
aI30123533
aI29587286
aI29754551
aI29793871
aI29890191
aI29602658
aI29246568
aI29499452
aI29504469
aI29923899
aI29716425
aI29615092
aI29464797
aI29662439
aI29853563
aI29461899
aI29632233
aI29306112
aI29318979
aI29536735
aI29247334
aI29616153
aI29408707
aI30043455
aI29737102
aI29135020
aI29440650
aI29964153
aI30114174
aI29806789
aI29601086
aI29402975
aI29697618
aI29662787
aI30160553
aI29381870
aI29629707
aI29587083
aI29212581
aI29690224
aI29699255
aI29866558
aI29529748
aI29785405
aI29807071
aI29085238
aI29683133
aI29961340
aI29678299
aI29557950
aI30055170
aI29651165
aI29546429
aI29812163
aI29773635
aI29625736
aI29951485
aI29970195
aI29639130
aI29829165
aI29663987
aI29593965
aI29437972
aI29745035
aI29370802
aI29931665
aI29819392
aI29851252
aI29591685
aI29298719
aI29854072
aI29425444
aI29411747
aI29657891
aI29932829
aI29591367
aI29746096
aI29345574
aI29710105
aI29917536
aI29483446
aI29645256
aI29589471
aI29050915
aI29478703
aI29856568
aI29701793
aI29870841
aI29433803
aI29707882
aI29207303
aI29901334
aI29446788
aI29421070
aI29745536
aI29272855
aI29584167
aI29772748
aI29746459
aI29709538
aI29742220
aI29391145
aI29755632
aI29685445
aI29442258
aI29903283
aI29665481
aI29752291
aI29650955
aI30333856
aI29987742
aI29580742
aI29815924
aI29982213
aI29718239
aI30005259
aI29688473
aI29278942
aI29279810
aI29508304
aI29431927
aI29780373
aI29686800
aI29748324
aI29683301
aI29825965
aI29784613
aI29386761
aI29330918
aI29739258
aI29236686
aI29717214
aI29357293
aI29976828
aI30331470
aI29492663
aI29251286
aI29892798
aI30076061
aI29659335
aI29735555
aI29490777
aI29862590
aI29547449
aI29626180
aI29088960
aI29648623
aI29489782
aI29722602
aI29207410
aI29199236
aI29334923
aI29162825
aI29426031
aI29716906
aI29902281
aI29125407
aI29811038
aI29753932
aI29957522
aI29791146
aI29591566
aI29966754
aI29773710
aI29623723
aI29476660
aI30253726
aI29650170
aI29584191
aI29379508
aI29816157
aI29813480
aI29363106
aI29531243
aI29607633
aI29763678
aI29543028
aI29826231
aI29637356
aI29791792
aI29700073
aI29511004
aI29728687
aI29271278
aI29757085
aI29646119
aI29658305
aI29673925
aI30032107
aI29634787
aI29555010
aI29816973
aI29215403
aI29172595
aI29988416
aI30400384
aI29455620
aI29544799
aI29709357
aI29727334
aI29994902
aI29100307
aI29640130
aI29626084
aI29488822
aI29850539
aI29781437
aI29511054
aI29944699
aI29898824
aI29876697
aI29572081
aI29579237
aI29174775
aI29907625
aI29566914
aI29108909
aI29861457
aI29283854
aI30120104
aI29601421
aI29468592
aI29269081
aI29594489
aI29467570
aI29206802
aI29799423
aI29392547
aI29746232
aI29939265
aI29565713
aI29837890
aI30026057
aI29312801
aI29512511
aI29527330
aI29429965
aI29122595
aI29269300
aI29725217
aI29763587
aI29610946
aI29841510
aI29651106
aI29514729
aI29248128
aI29380731
aI29656558
aI30024064
aI29603056
aI29512240
aI29817647
aI28754340
aI29640938
aI29315648
aI30051303
aI29611348
aI29256399
aI29501013
aI29415406
aI29851840
aI29743664
aI29737374
aI29349428
aI29891653
aI29376612
aI29912644
aI29695118
aI29457895
aI29587369
aI29673211
aI29575694
aI29811446
aI29368460
aI29933590
aI30185114
aI28962554
aI29324105
aI29476507
aI29275252
aI29909097
aI29471087
aI29629310
aI29671334
aI29086850
aI29870769
aI29534783
aI29619633
aI29636519
aI29834077
aI29910211
aI29645499
aI29794716
aI29643036
aI29685004
aI29721567
aI30033023
aI29561760
aI29012056
aI29641554
aI29439359
aI29086968
aI29675202
aI29742615
aI29627624
aI29377125
aI29699881
aI29410722
aI29657922
aI29339545
aI29634831
aI29637255
aI29802274
aI29491027
aI29823208
aI29638654
aI29583957
aI29561175
aI29847973
aI29514806
aI29789100
aI29837899
aI30003503
aI29771442
aI29526797
aI29743121
aI29866560
aI29764127
aI29802754
aI29500171
aI29695195
aI29406797
aI29039071
aI29467256
aI29265622
aI29968123
aI30037545
aI29672337
aI29974411
aI29616281
aI30266640
aI29854426
aI29283907
aI29621830
aI29497441
aI30050554
aI30036949
aI29275463
aI29630360
aI29776469
aI29803701
aI29537302
aI30077751
aI29958143
aI30158607
aI28982194
aI29519672
aI29280011
aI29559121
aI29990891
aI29791691
aI29660145
aI29848057
aI30123245
aI29573893
aI29182373
aI29750833
aI29492810
aI29494402
aI29553291
aI29991034
aI29464028
aI29088340
aI29584101
aI29909404
aI29500968
aI29302390
aI29682194
aI30024645
aI29950538
aI29697129
aI30132808
aI29653157
aI29206591
aI29229618
aI29965149
aI29996086
aI29459170
aI29608890
aI29828680
aI29458935
aI29748883
aI29126245
aI29625111
aI29840838
aI29626683
aI29328593
aI29610574
aI29793150
aI29671034
aI29854474
aI29098732
aI29404939
aI29817921
asI6
(lp7
I16727564
aI16631951
aI16633639
aI17184006
aI16785874
aI16665937
aI16986007
aI16839733
aI16739580
aI17212836
aI16976287
aI16869586
aI16833494
aI16673620
aI17055235
aI16353189
aI16976017
aI16420373
aI16500218
aI16789428
aI16927663
aI17150549
aI16771064
aI17015156
aI17114471
aI16288600
aI16617569
aI16887443
aI16523253
aI17122976
aI17223659
aI17077480
aI16512038
aI16940846
aI17048583
aI17032256
aI16882280
aI16965323
aI16717314
aI16867673
aI17323781
aI16954488
aI17269914
aI17021638
aI16829777
aI16636822
aI17072668
aI16847214
aI16913742
aI17054836
aI16853502
aI16890590
aI16955177
aI17127882
aI17036558
aI16665497
aI17129589
aI16838968
aI16571704
aI16922365
aI16943072
aI16788793
aI16655527
aI16815304
aI16933614
aI16897797
aI17257373
aI17042466
aI17155819
aI16744729
aI17186895
aI17155105
aI17192663
aI17076873
aI16748258
aI16783384
aI16700790
aI16997523
aI17155927
aI16618295
aI16874920
aI16672205
aI17005752
aI16525689
aI16593908
aI17334670
aI16870391
aI17133061
aI16887562
aI16967551
aI16836311
aI17441857
aI16935656
aI17083251
aI16735368
aI16959280
aI16786426
aI16608290
aI16865914
aI17259043
aI17020163
aI17418820
aI16795615
aI16769183
aI16885571
aI16737494
aI16688497
aI16901700
aI16926815
aI16948253
aI16933032
aI17000993
aI16724765
aI17084109
aI17211679
aI16563387
aI16424008
aI16930087
aI16695998
aI16985985
aI17047558
aI16807570
aI16852029
aI16696530
aI16611642
aI17051413
aI16714850
aI17212100
aI17096140
aI16796877
aI16693060
aI16922320
aI17294425
aI16966549
aI16814752
aI16846448
aI16992682
aI16925306
aI16798912
aI17143798
aI17166357
aI16886794
aI16923304
aI16711115
aI17279954
aI16877133
aI17249566
aI16356693
aI17101334
aI17590711
aI16816785
aI17319244
aI16694124
aI17241976
aI16956083
aI16799219
aI16857362
aI16997355
aI16521673
aI17060875
aI17187750
aI16769326
aI17343814
aI16812897
aI16902898
aI16692261
aI16570515
aI16904125
aI16761890
aI16939735
aI17057460
aI17327022
aI17322125
aI17127121
aI16868680
aI17057363
aI16786078
aI17055677
aI17467646
aI17030973
aI16766524
aI16789676
aI17040519
aI17204897
aI16828495
aI16534917
aI16891882
aI16808940
aI16881043
aI17043747
aI16857670
aI16865559
aI16657143
aI17193243
aI16935131
aI17151496
aI16893360
aI16634804
aI16914021
aI16561589
aI16828718
aI16996428
aI17107615
aI17146030
aI17031385
aI16934968
aI17022413
aI17175830
aI17122566
aI17151434
aI16568425
aI17459007
aI16860207
aI17041871
aI16707545
aI16902286
aI16947254
aI16335203
aI16762976
aI17077023
aI16621863
aI16849935
aI17044919
aI17114800
aI16869614
aI16984635
aI17051807
aI17046012
aI16781847
aI16805219
aI16750231
aI16551964
aI17070952
aI16901538
aI17389680
aI17101402
aI16967878
aI17159357
aI16961921
aI16836512
aI16896519
aI16921228
aI16850160
aI16871027
aI16918959
aI16964754
aI16894148
aI17087638
aI16533820
aI17089337
aI16924844
aI17096760
aI16992850
aI16676388
aI17296011
aI17023284
aI16940771
aI17005987
aI16920072
aI17080175
aI16902194
aI16990234
aI16810107
aI16636093
aI17107968
aI16760377
aI16966145
aI16907442
aI16912376
aI16949337
aI16685014
aI16698087
aI16981055
aI16974840
aI17138622
aI16756950
aI16836497
aI16657739
aI17098727
aI16694230
aI16978684
aI16884708
aI17210715
aI16854768
aI16974191
aI17074331
aI16477509
aI17008928
aI16555777
aI16763446
aI17023122
aI16902322
aI16878102
aI16740654
aI16991173
aI16940833
aI16878653
aI16352972
aI16700322
aI16777276
aI16889285
aI17014956
aI16948567
aI17140286
aI17237953
aI16815069
aI17145028
aI16793577
aI16844770
aI16787917
aI16467234
aI17115668
aI17058355
aI16444737
aI17051527
aI17369295
aI16884075
aI16772484
aI17098018
aI16834409
aI17160628
aI17065111
aI16893558
aI16747639
aI16748404
aI17083279
aI17039943
aI16986974
aI17123531
aI17284153
aI16944349
aI17114789
aI17016308
aI16953292
aI17093134
aI17019227
aI16752535
aI16833057
aI16767828
aI16726755
aI16859983
aI16957569
aI17569153
aI16979315
aI17102565
aI17186954
aI17205567
aI16861606
aI16885288
aI17017579
aI16791193
aI16854049
aI16890468
aI16858767
aI16809199
aI16603440
aI16719032
aI16907435
aI16802314
aI17140770
aI16837006
aI16651227
aI16778434
aI17076436
aI17008948
aI16881699
aI16764973
aI16714238
aI17068222
aI16835977
aI16791420
aI16893631
aI16855103
aI17013928
aI17169847
aI17062472
aI16888356
aI17136454
aI16756123
aI16476539
aI16947293
aI17131458
aI17012280
aI17380634
aI16951733
aI17026995
aI16992382
aI17052262
aI16948310
aI16791213
aI17012594
aI17101531
aI16607294
aI16907664
aI16935400
aI17237752
aI17303519
aI16820238
aI16820872
aI16762777
aI17269421
aI16744273
aI16857590
aI16788277
aI16914956
aI16682910
aI16929348
aI16666073
aI16848464
aI16580455
aI16989766
aI17163861
aI16922597
aI16574366
aI16515776
aI17155955
aI16807597
aI16918681
aI16599835
aI16732035
aI16822400
aI17038279
aI17035715
aI16986113
aI16854438
aI16571269
aI16998268
aI17106225
aI16990008
aI17068608
aI16791064
aI16971203
aI16604067
aI17321422
aI16760604
aI16810860
aI17046463
aI16636913
aI16757672
aI16942396
aI16621468
aI16865055
aI16953896
aI17048836
aI16853232
aI16977290
aI17046737
aI17042766
aI16948927
aI16893782
aI16927363
aI16445655
aI17194843
aI16962195
aI17252615
aI17050323
aI16799121
aI17017937
aI17246649
aI16774071
aI17283534
aI16627518
aI16996617
aI16829726
aI16924710
aI16724112
aI17092720
aI16783765
aI17064663
aI16889982
aI17129630
aI16373741
aI16944511
aI17306759
aI16719409
aI17153073
aI16772814
aI16824037
aI16887920
aI16760042
aI17333212
aI16974973
aI16964275
aI16985730
aI17374014
aI16873805
aI17199576
aI16407301
aI16820269
aI17223367
aI16898591
aI17114600
aI16912797
aI17360068
aI17127077
aI16935570
aI17235710
aI17059105
aI16775872
aI16698813
aI17397731
aI16857554
aI16985739
aI16872493
aI16744006
aI16801773
aI16885943
aI16786914
aI16741073
aI16580117
aI16874062
aI16864762
aI16599903
aI16947295
aI16964104
aI17008136
aI17130256
aI16815323
aI16709022
aI16784775
aI16675349
aI17198764
aI16557902
aI17091940
aI16949228
aI16651449
aI17081435
aI17262778
aI16942379
aI17220925
aI16666260
aI17211704
aI17208303
aI17246783
aI16657585
aI17090497
aI17012459
aI16820031
aI17209997
aI17116624
aI16852902
aI16642812
aI17168421
aI16880065
aI16836989
aI17230891
aI16750471
aI17461768
aI16835805
aI16964544
aI16981547
aI16944059
aI16636616
aI16745446
aI16942281
aI16708132
aI16771530
aI17005748
aI16854767
aI16721144
aI17426092
aI17331572
aI17153638
aI17070766
aI17240606
aI16963624
aI16602470
aI17058812
aI17026775
aI17125166
aI17041097
aI17003160
aI16992088
aI16861926
aI16974939
aI17246592
aI17125039
aI17022709
aI16892595
aI16707746
aI17085644
aI16529012
aI16948205
aI17201657
aI17040432
aI17326375
aI17111864
aI17137248
aI16910024
aI17099981
aI16843652
aI16959588
aI16660145
aI17096732
aI16798996
aI17078508
aI17265087
aI17243269
aI17101709
aI17041211
aI16816377
aI17314825
aI16764285
aI17332686
aI16934211
aI16425009
aI17209329
aI16984517
aI17281080
aI16490872
aI17056684
aI17270349
aI16743122
aI17090183
aI16703396
aI17023142
aI16782703
aI16694503
aI16777655
aI17037873
aI17326812
aI17079374
aI17064653
aI16883372
aI16974808
aI16941794
aI17144820
aI17109373
aI16980136
aI16267769
aI16593166
aI16787050
aI16581799
aI17068625
aI16832963
aI17080313
aI16643635
aI17121238
aI17079490
aI16669214
aI16501744
aI16942830
aI17120434
aI16886867
aI16929054
aI16870318
aI16713296
aI16855401
aI16840389
aI17315921
aI17015558
aI17185136
aI16551399
aI16686178
aI17026948
aI17263334
aI16821346
aI17185553
aI16765944
aI16644673
aI17197384
aI16818760
aI17086851
aI16775922
aI16472530
aI16795686
aI17199586
aI16945688
aI16867137
aI17124831
aI16837782
aI17097070
aI16758599
aI16857735
aI16914798
aI17470829
aI16814707
aI17019298
aI16589869
aI16875894
aI16958232
aI17351854
aI16683130
aI16869299
aI16650528
aI16516797
aI17188758
aI17040112
aI17118870
aI17004609
aI16999507
aI16747548
aI16643682
aI17096801
aI17014263
aI16756127
aI16595382
aI17195794
aI16921127
aI17154842
aI17289937
aI16958588
aI17121543
aI17217797
aI16867521
aI16977224
aI17003205
aI17135181
aI16622167
aI17089577
aI17066718
aI16872056
aI17500166
aI17069126
aI16846225
aI16911577
aI16625081
aI17192432
aI16818059
aI16863157
aI16791360
aI17047765
aI16903726
aI16907021
aI16939027
aI16828792
aI16903902
aI16671597
aI17129714
aI17009604
aI16450416
aI16802361
aI17126103
aI16969982
aI17103813
aI16805089
aI16666991
aI17002012
aI17200359
aI17070783
aI16808715
aI17088320
aI16418424
aI16890136
aI17198359
aI16854976
aI16965747
aI16805953
aI16828297
aI17112908
aI17459344
aI16748543
aI17109017
aI16876068
aI16669642
aI17053197
aI16858345
aI17140536
aI16732204
aI16848121
aI17028100
aI17054837
aI17046767
aI16986049
aI16806623
aI17040107
aI16935605
aI17067577
aI17133021
aI16796003
aI16908933
aI16944581
aI16778141
aI17103298
aI16602097
aI16784109
aI16963193
aI16888820
aI16881449
aI16842128
aI17122755
aI16998143
aI16836231
aI16846896
aI16960605
aI17251312
aI16868197
aI16925598
aI17096590
aI16995306
aI16449094
aI16590953
aI16404348
aI17145103
aI16901017
aI17002230
aI16675158
aI16898377
aI16949622
aI17005712
aI17066648
aI16760149
aI17148061
aI16857255
aI17177103
aI16869520
aI17145914
aI17007672
aI16475284
aI17346039
aI17167236
aI16780081
aI16994693
aI17305060
aI16951366
aI16822675
aI17042334
aI17268335
aI16634314
aI16730581
aI16403634
aI17056514
aI17285588
aI16771381
aI17077798
aI16998420
aI16834011
aI16740448
aI16825155
aI17199089
aI16346338
aI17182285
aI16952118
aI16891782
aI16752486
aI17184426
aI17222211
aI17091599
aI17054874
aI16806855
aI16832721
aI17363609
aI17285160
aI16975283
aI16571678
aI16920609
aI17058466
aI16875655
aI16629267
aI16840880
aI17087678
aI16817340
aI16998676
aI16807052
aI16524078
aI17181608
aI17259960
aI17075415
aI17176439
aI16819358
aI16599417
aI17183993
aI16743717
aI16962666
aI16994334
aI16524872
aI17276352
aI16837189
aI16787090
aI16779298
aI17007839
aI16629388
aI16659016
aI17262623
aI16515660
aI17061742
aI17029978
aI16926509
aI17035314
aI17115762
aI16675520
aI16744615
aI16604402
aI16781997
aI16889083
aI17008455
aI16800684
aI16893522
aI17086623
aI17178957
aI16864114
aI16859827
aI16263526
aI16832646
aI16834640
aI16958369
aI17213330
aI16943359
aI16843828
aI16347204
aI16842800
aI16740211
aI17116513
aI17060083
aI16966087
aI17161795
aI16836533
aI16859524
aI16742314
aI17329202
aI16964162
aI16930223
aI16938154
aI17210228
aI17079621
aI16902983
aI17156211
aI17036376
aI16610554
aI16993367
aI16734275
aI17345430
aI17197351
aI16623770
aI16875581
aI16818900
aI16937474
aI16902533
aI17236750
aI16828928
aI16893801
aI16888346
aI16635564
aI16916222
aI16902514
aI16641153
aI17155022
aI17166492
aI16924543
aI16884824
aI17068520
aI17177817
aI17012229
aI16619943
aI16788696
aI16582672
aI16498929
aI16759476
aI16660421
aI16836441
aI16658348
aI17053002
aI16478386
aI16641083
aI16790783
aI16604755
aI16656784
aI16970322
aI17033711
aI16852737
aI16913707
aI16933775
aI16847734
aI17055296
aI16509460
aI16806214
aI16636443
aI16681841
aI16985471
aI16953164
aI17040092
aI16853269
aI17038228
aI16815824
aI17078915
aI17452901
aI17080038
aI16984159
aI16561237
aI16712561
aI16419048
aI16740527
aI17221719
aI17081320
aI16663626
aI17086171
aI16530592
aI17193338
aI16893357
aI16716169
aI16913701
aI16664342
aI17437544
aI17112737
aI16808196
aI16999480
aI16863572
aI17202103
aI16669229
aI17108949
aI16875957
aI17375436
aI16357263
aI16867863
aI16970439
aI17039461
aI17377156
aI16904683
aI16992339
aI17206399
aI17241233
aI17215118
aI16965560
aI16851283
aI16748772
aI16751272
aI16774976
aI17192422
aI16949468
aI17067256
aI17046138
aI16956240
aI16780289
aI16961543
aI17076405
aI16641584
aI17125127
aI16921292
aI16950282
aI16997943
aI16699009
aI16622992
aI16885916
aI17145581
aI16692900
aI17262959
aI17085053
aI16805221
aI17207436
aI16994213
aI16967990
aI17147223
aI16893129
aI16834257
aI16927339
aI17006412
aI16885073
aI16909381
aI16684032
aI16556253
aI17156213
asI7
(lp8
I7243073
aI6943408
aI7040582
aI7244448
aI7167584
aI7043296
aI7158575
aI6988801
aI6860395
aI7294677
aI7138137
aI7080147
aI6885192
aI7166057
aI7001106
aI6827624
aI7040587
aI6763388
aI6915740
aI7135770
aI6902607
aI7363098
aI6983654
aI7061693
aI7120586
aI6947987
aI6844252
aI7105897
aI6848032
aI7253661
aI7279535
aI7142217
aI6979330
aI7223197
aI7220008
aI7137643
aI7184913
aI7167382
aI7103576
aI7204296
aI7338535
aI7140178
aI7222185
aI7042383
aI7317680
aI7055420
aI7322947
aI7089741
aI7114421
aI7147726
aI7024105
aI7196704
aI6973369
aI7186671
aI7256858
aI7048660
aI7355228
aI7227636
aI6906032
aI7221821
aI7127027
aI7153243
aI6966716
aI6982830
aI7029349
aI7065224
aI7361205
aI7226497
aI7110310
aI6896499
aI7261605
aI7119090
aI7180126
aI7148681
aI6970760
aI7162815
aI7074017
aI7005815
aI7113210
aI6901641
aI7134541
aI7197230
aI7395066
aI7012209
aI6813534
aI7285641
aI6986917
aI7138828
aI7035555
aI7167378
aI7099164
aI7301264
aI7088143
aI7272803
aI7112755
aI7160321
aI6835594
aI6964739
aI7196816
aI7242062
aI7411040
aI7238768
aI7009610
aI7091323
aI7122592
aI6903439
aI6908791
aI7165150
aI7156978
aI7117059
aI6984949
aI7118343
aI7057714
aI7171633
aI7472760
aI7033546
aI7109067
aI7136398
aI7156220
aI7160459
aI7103810
aI7180513
aI7073852
aI7066541
aI7187244
aI7313563
aI7182255
aI7349961
aI7287152
aI7166239
aI6956558
aI7182079
aI7327989
aI6894918
aI7125600
aI7034537
aI7008732
aI7097122
aI7076078
aI7199385
aI6974080
aI6975485
aI7145837
aI7132856
aI7282208
aI7015889
aI7141913
aI6820240
aI6913034
aI7618834
aI7154043
aI7496772
aI6914830
aI7474931
aI7092321
aI7192913
aI7211977
aI7117366
aI6705334
aI7243804
aI7303723
aI7117679
aI7201645
aI7003266
aI7269414
aI6941386
aI6751869
aI7388883
aI7216688
aI7044654
aI7155605
aI7354660
aI7453310
aI7091500
aI7018943
aI7309529
aI7000980
aI7187080
aI7464526
aI7147048
aI7189657
aI7050870
aI7248939
aI7303792
aI7074826
aI7037279
aI7194169
aI7023157
aI7171559
aI7168301
aI7169602
aI7094621
aI6941847
aI7304908
aI7204287
aI7308362
aI7446665
aI6904514
aI7248512
aI6772328
aI7033150
aI7172312
aI7217192
aI7112562
aI7219874
aI7221832
aI7246646
aI7165444
aI7277559
aI7338759
aI6970140
aI7541083
aI7095221
aI7038059
aI6882683
aI7000073
aI7245494
aI6933659
aI7151231
aI7193842
aI6996702
aI7147717
aI7347577
aI7277135
aI7132979
aI7247399
aI7342381
aI7116911
aI6999082
aI7099029
aI7088016
aI6945495
aI7026612
aI7159513
aI7053737
aI7248726
aI7088297
aI7385694
aI7207193
aI7126866
aI7280758
aI7183596
aI7061386
aI7151987
aI7131945
aI7167197
aI7233125
aI7159078
aI6879363
aI7395610
aI7146560
aI7192625
aI7060104
aI7132183
aI7239818
aI7191411
aI7191419
aI7117288
aI6971187
aI7255300
aI7375094
aI7000011
aI6996759
aI6965423
aI7178560
aI7036863
aI7213053
aI7175328
aI6950650
aI7179891
aI7050983
aI6839661
aI7154114
aI7242881
aI7001165
aI7004091
aI7160176
aI7008872
aI7228490
aI7063704
aI7093996
aI6951098
aI7477736
aI6938066
aI7044552
aI7190939
aI7008330
aI7322643
aI7140747
aI7196471
aI7221932
aI7013766
aI7052529
aI6935395
aI7099329
aI7152510
aI6916724
aI6764023
aI6985341
aI7030805
aI7158774
aI7093400
aI7308670
aI7171113
aI7315467
aI6958440
aI7064421
aI7000112
aI7270568
aI7092627
aI6876883
aI7356238
aI7152890
aI6945436
aI7272483
aI7219648
aI7121889
aI7067833
aI7219221
aI6885948
aI7370080
aI7162455
aI7324481
aI7140751
aI7192660
aI7339610
aI7264438
aI7351172
aI7312911
aI7304269
aI7170639
aI7208800
aI7136049
aI7063109
aI7103593
aI7071536
aI7162885
aI7080583
aI7042022
aI7037195
aI7169605
aI7181833
aI7415980
aI7234212
aI7160743
aI7114904
aI7137674
aI7161328
aI7152664
aI7056007
aI7061561
aI7042309
aI7093466
aI7087275
aI6903212
aI6925130
aI7029254
aI7077938
aI6960453
aI7410480
aI7059308
aI6874981
aI7031180
aI7051854
aI7233465
aI7182272
aI7058802
aI6984037
aI7210035
aI7024126
aI7040836
aI7035336
aI6979432
aI7017211
aI7119400
aI7206793
aI7176978
aI7304230
aI6973892
aI6998244
aI7184300
aI7308214
aI7259887
aI7145308
aI7060930
aI7027029
aI7115312
aI7466802
aI7147350
aI7051540
aI7165831
aI7252100
aI7069698
aI7230465
aI7001168
aI7427703
aI7204950
aI6930359
aI6949353
aI7163376
aI7192632
aI7012761
aI7097762
aI7037229
aI7221912
aI7068669
aI7031760
aI7032827
aI6963732
aI6899230
aI7246122
aI7094245
aI7114673
aI6832142
aI7102969
aI7222917
aI7045636
aI7077816
aI6947073
aI7075321
aI7122926
aI7267703
aI7282703
aI7283456
aI7017396
aI7108730
aI7180702
aI7247363
aI7148656
aI7495489
aI7095795
aI7143013
aI7031484
aI7186242
aI6956722
aI7277097
aI7118196
aI6983574
aI6966027
aI7041868
aI7033548
aI7045985
aI7341479
aI7208541
aI7078174
aI7292700
aI7132377
aI7311657
aI7115155
aI7055761
aI7164619
aI6809522
aI7436528
aI6965471
aI7276586
aI7336663
aI7013226
aI7299915
aI7303099
aI6959610
aI7278888
aI6922650
aI7262150
aI6971187
aI7133857
aI7033236
aI7469432
aI7027561
aI7091485
aI7146116
aI7197048
aI6868737
aI7190022
aI7375767
aI6924611
aI7322629
aI7013615
aI6952148
aI7130437
aI7156745
aI7252943
aI7204438
aI7133191
aI7294700
aI7131276
aI7129062
aI7268210
aI6732651
aI7129766
aI7446639
aI7079566
aI7015461
aI7323086
aI7198702
aI7408187
aI7066360
aI7285595
aI7096808
aI7147881
aI6993380
aI7426095
aI7111649
aI7176475
aI6855684
aI7013819
aI6975423
aI7128752
aI7022563
aI6996579
aI6937580
aI7177647
aI7247054
aI7087149
aI7147848
aI7148399
aI7166538
aI7078209
aI7178409
aI6857534
aI6948704
aI7054482
aI7439474
aI7076202
aI7060096
aI6939715
aI7077165
aI7351293
aI7160100
aI7062675
aI7312476
aI6941784
aI7077830
aI7280181
aI7221177
aI6914478
aI7128853
aI7101967
aI7122314
aI7243852
aI7477879
aI6972784
aI6992924
aI7377214
aI7146856
aI7141871
aI7174445
aI7136324
aI7294860
aI7057161
aI7243412
aI7020425
aI7177550
aI7120872
aI7086534
aI7266322
aI7309812
aI6932262
aI7234686
aI6992710
aI7010610
aI7369701
aI7308829
aI7156261
aI7178736
aI7369975
aI7056562
aI6967641
aI7114962
aI7217621
aI7271550
aI7253763
aI7092371
aI7244166
aI7203244
aI7006334
aI7333711
aI7195074
aI7290880
aI7084690
aI6944234
aI7202191
aI7033053
aI7134080
aI7244871
aI7084025
aI7315881
aI7210905
aI7246013
aI7097093
aI7289055
aI7047282
aI7132360
aI7079236
aI7127362
aI7230333
aI7262582
aI7400985
aI7359258
aI7268934
aI7216716
aI7011202
aI7345770
aI6963055
aI7278565
aI7135669
aI6857979
aI7302841
aI7424536
aI7310574
aI6778269
aI7208076
aI7250657
aI7093238
aI7263271
aI7025240
aI7223684
aI7243371
aI6753306
aI7213014
aI7103580
aI7144498
aI7121460
aI7208758
aI6976590
aI7162001
aI7035776
aI7231760
aI7252318
aI7176602
aI6826898
aI7047901
aI7023332
aI7033848
aI7113636
aI7140830
aI7245908
aI7122025
aI7360460
aI6982723
aI7128480
aI6952624
aI7073378
aI7138209
aI7114280
aI6898526
aI7089753
aI7004729
aI6954306
aI6997640
aI7309422
aI6988422
aI7253141
aI7012715
aI7054174
aI7201578
aI7573550
aI6816880
aI7332437
aI7089127
aI6915680
aI7127349
aI7032158
aI7249602
aI7107006
aI6887040
aI6940916
aI7252257
aI7337338
aI7086199
aI7340042
aI6819937
aI7370413
aI7312998
aI7022907
aI6916686
aI7328694
aI6916340
aI7196307
aI6958893
aI7166172
aI7188757
aI7181089
aI7038748
aI7143997
aI6833609
aI7018076
aI7460402
aI7253943
aI7109869
aI7231521
aI7163355
aI6964084
aI7028667
aI7283990
aI7148924
aI6965376
aI6996987
aI7138713
aI7110743
aI7336516
aI7309214
aI6980399
aI7157493
aI7202021
aI7026247
aI7285467
aI7058155
aI7254394
aI6940463
aI7369583
aI7060320
aI7188250
aI7377070
aI7043297
aI7018770
aI7110888
aI6999102
aI7259058
aI7115601
aI7134431
aI7006372
aI7203102
aI7213184
aI7200804
aI7139020
aI7060809
aI7142627
aI6974483
aI7325909
aI7214861
aI6855323
aI7053420
aI7147720
aI7146439
aI7160952
aI7020361
aI6885469
aI7309670
aI7183155
aI7264821
aI7109170
aI7217261
aI6879508
aI7001914
aI7109941
aI7014084
aI7192694
aI7024763
aI7076046
aI7222920
aI7303795
aI6997966
aI7040728
aI7204964
aI6887044
aI7310692
aI6824359
aI7192358
aI7079586
aI7135730
aI6991681
aI7195644
aI6982269
aI7259331
aI7243908
aI7188676
aI7120077
aI7340319
aI7285936
aI7062661
aI7067584
aI7090080
aI6837993
aI7134809
aI7088334
aI7104619
aI7112126
aI7205005
aI7035633
aI7268164
aI7238347
aI6819495
aI6926986
aI7202447
aI6961528
aI7234628
aI7168237
aI7215161
aI7352604
aI7039582
aI6911194
aI6907780
aI6877463
aI7314753
aI7238477
aI7176305
aI7162343
aI7219817
aI7193406
aI7248058
aI7293901
aI7019155
aI7193415
aI7010284
aI7370219
aI7129041
aI7322761
aI7125379
aI6967941
aI7503739
aI7212514
aI6868827
aI7350295
aI7192790
aI7205540
aI7070828
aI7391128
aI7319290
aI6882002
aI7047471
aI6900974
aI7100100
aI7373189
aI7056371
aI7086187
aI7161826
aI6918689
aI7041273
aI7020839
aI7311270
aI6813568
aI7198023
aI7341605
aI7067899
aI7049143
aI7349345
aI7246473
aI7278333
aI7242962
aI7050305
aI7168481
aI7315253
aI7144270
aI7305408
aI6832196
aI7118359
aI7171282
aI7126343
aI7241056
aI7070990
aI7274395
aI6965483
aI7209284
aI7059777
aI6737424
aI7180895
aI7311606
aI7088482
aI7225225
aI7140258
aI7060275
aI7271560
aI7212420
aI7217085
aI7043667
aI7087150
aI7185197
aI7107804
aI7100262
aI6941869
aI7118362
aI6888974
aI7127157
aI7302118
aI6956732
aI7173552
aI7084394
aI7224887
aI7130390
aI7143834
aI7031446
aI7044116
aI6989612
aI7096098
aI7029182
aI7390745
aI7045735
aI7102360
aI7255166
aI7187934
aI7059996
aI7136553
aI6685107
aI7218277
aI7173818
aI7092833
aI7252247
aI7164883
aI7196641
aI6968483
aI7066405
aI6997354
aI7084566
aI7331866
aI7197671
aI7262990
aI7090576
aI6972828
aI6821874
aI7334793
aI7333715
aI7016411
aI7120735
aI7038618
aI7182531
aI7216580
aI7357794
aI7213956
aI7046153
aI7262081
aI7036466
aI7513993
aI7139888
aI6943133
aI7111249
aI6987204
aI7109883
aI7137971
aI7487980
aI7195354
aI7238309
aI7122889
aI6936625
aI7237306
aI6992967
aI7088682
aI7126692
aI7288697
aI7100413
aI7030791
aI7115878
aI7237117
aI7149717
aI6852576
aI7146966
aI7090800
aI6891017
aI7029120
aI6952330
aI7122658
aI7064305
aI7156531
aI7037222
aI6937018
aI7057017
aI6960434
aI7072429
aI7314116
aI7287617
aI7080964
aI6970325
aI7185208
aI7131417
aI7168798
aI6823434
aI7136738
aI7005961
aI6870215
aI7128226
aI7105497
aI7220283
aI7106625
aI7248482
aI6959689
aI7417015
aI7331744
aI7360105
aI7151402
aI7013275
aI7152378
aI6904281
aI7060899
aI7245882
aI7119245
aI7003649
aI7156010
aI6860300
aI7101328
aI7206763
aI7052481
aI7168836
aI7140802
aI7381023
aI7223536
aI7208231
aI7294619
aI7012911
aI7177239
aI7079182
aI7288479
aI7015443
aI7259924
aI6884418
aI7077802
aI7195998
aI7310749
aI7351056
aI6972624
aI7229176
aI7338199
aI7198930
aI7161647
aI7357833
aI7220141
aI7253399
aI6916937
aI7032532
aI7072872
aI7211528
aI7355607
aI7346465
aI6982916
aI7040865
aI7245219
aI7115679
aI6921809
aI7342058
aI7172842
aI7038824
aI7185662
aI7134697
aI7093997
aI6976667
aI7097317
aI7117268
aI7351765
aI7160661
aI7126413
aI7330383
aI7445132
aI7009134
aI7106107
aI7211335
aI7152867
aI7169265
aI7195199
aI7085883
aI7093097
aI6956481
aI6980573
aI7112543
asI8
(lp9
I2654983
aI2510928
aI2540320
aI2593877
aI2666415
aI2646610
aI2614632
aI2570818
aI2502305
aI2635228
aI2541244
aI2511851
aI2484911
aI2709808
aI2541019
aI2529231
aI2429200
aI2457457
aI2546531
aI2616808
aI2434471
aI2709665
aI2450927
aI2518626
aI2539545
aI2573777
aI2417905
aI2602517
aI2553405
aI2535841
aI2614183
aI2554872
aI2617712
aI2642605
aI2665574
aI2604306
aI2587643
aI2657657
aI2649814
aI2576359
aI2645676
aI2613244
aI2561518
aI2523237
aI2694733
aI2497592
aI2621455
aI2591524
aI2642067
aI2603914
aI2540267
aI2613155
aI2400308
aI2628638
aI2653339
aI2607937
aI2674785
aI2698462
aI2375407
aI2658262
aI2565135
aI2646568
aI2515879
aI2551657
aI2502179
aI2517135
aI2722707
aI2620545
aI2546943
aI2536870
aI2649426
aI2543326
aI2610035
aI2632328
aI2594103
aI2557469
aI2629464
aI2449089
aI2573853
aI2482229
aI2604889
aI2615095
aI2757702
aI2634796
aI2417980
aI2589422
aI2447578
aI2529249
aI2531262
aI2674269
aI2609706
aI2590504
aI2577619
aI2706335
aI2587997
aI2693488
aI2409058
aI2484124
aI2684236
aI2500283
aI2733540
aI2603093
aI2542853
aI2560684
aI2597851
aI2504331
aI2471655
aI2598114
aI2576801
aI2505334
aI2453171
aI2560103
aI2584258
aI2494581
aI2779232
aI2603910
aI2654123
aI2576905
aI2695826
aI2601466
aI2593640
aI2595702
aI2592662
aI2584849
aI2726516
aI2687160
aI2663796
aI2612162
aI2722932
aI2578816
aI2484521
aI2656366
aI2774386
aI2444496
aI2640145
aI2573044
aI2502039
aI2483562
aI2573005
aI2555222
aI2412520
aI2496898
aI2684526
aI2661238
aI2651431
aI2529075
aI2569060
aI2431658
aI2430672
aI2843980
aI2629320
aI2752407
aI2454527
aI2760697
aI2615318
aI2708704
aI2663150
aI2520291
aI2402605
aI2619251
aI2606595
aI2626826
aI2518787
aI2549620
aI2685488
aI2543029
aI2409359
aI2689758
aI2700183
aI2529893
aI2571933
aI2566435
aI2683064
aI2562208
aI2502657
aI2679163
aI2541431
aI2619270
aI2690997
aI2530027
aI2676173
aI2493430
aI2541093
aI2640911
aI2540793
aI2651492
aI2666978
aI2552858
aI2655535
aI2543953
aI2667261
aI2590914
aI2523036
aI2622120
aI2765246
aI2699995
aI2773484
aI2485326
aI2683531
aI2426446
aI2495972
aI2632615
aI2625835
aI2504219
aI2659220
aI2601842
aI2620549
aI2564399
aI2636502
aI2705932
aI2519316
aI2695869
aI2608183
aI2435144
aI2420180
aI2494164
aI2658966
aI2531595
aI2639812
aI2670825
aI2661888
aI2638573
aI2617115
aI2669712
aI2539171
aI2698309
aI2680574
aI2496516
aI2534676
aI2487834
aI2592859
aI2544571
aI2465426
aI2630309
aI2430785
aI2622264
aI2524205
aI2757877
aI2673902
aI2609230
aI2650083
aI2649608
aI2440550
aI2587128
aI2565478
aI2522423
aI2651764
aI2623483
aI2460151
aI2612647
aI2548380
aI2619308
aI2475411
aI2630368
aI2569008
aI2578302
aI2612903
aI2583914
aI2536271
aI2686293
aI2740104
aI2501106
aI2594137
aI2552852
aI2605265
aI2560053
aI2671069
aI2630113
aI2511207
aI2653500
aI2551994
aI2433061
aI2548131
aI2700594
aI2527212
aI2503890
aI2619313
aI2482391
aI2530318
aI2611140
aI2576216
aI2441365
aI2713367
aI2448248
aI2576935
aI2547162
aI2539591
aI2586076
aI2670921
aI2717050
aI2546801
aI2433649
aI2552963
aI2500011
aI2528192
aI2579003
aI2468216
aI2397735
aI2517760
aI2472998
aI2622261
aI2571525
aI2709381
aI2547425
aI2632005
aI2466125
aI2442461
aI2530814
aI2755258
aI2604282
aI2506938
aI2691152
aI2551481
aI2488816
aI2656222
aI2606576
aI2684936
aI2602686
aI2606191
aI2471272
aI2643068
aI2583770
aI2754171
aI2668423
aI2641923
aI2674784
aI2661522
aI2643103
aI2663305
aI2554249
aI2656068
aI2523022
aI2482227
aI2570274
aI2542530
aI2554414
aI2611287
aI2522641
aI2569482
aI2569463
aI2693460
aI2586181
aI2609822
aI2608619
aI2553477
aI2563714
aI2583267
aI2523488
aI2630023
aI2518173
aI2566666
aI2536758
aI2514919
aI2557018
aI2441979
aI2547586
aI2598656
aI2553717
aI2509544
aI2729651
aI2538565
aI2506200
aI2519974
aI2438045
aI2643279
aI2663281
aI2593255
aI2521459
aI2641024
aI2592165
aI2542524
aI2513042
aI2502976
aI2453663
aI2452614
aI2594238
aI2627133
aI2635126
aI2519769
aI2664693
aI2539263
aI2645111
aI2651296
aI2591544
aI2505384
aI2409455
aI2585485
aI2730860
aI2613810
aI2547753
aI2540029
aI2596886
aI2658817
aI2697402
aI2458368
aI2730628
aI2517727
aI2452526
aI2548999
aI2769142
aI2578249
aI2593045
aI2622014
aI2567990
aI2603812
aI2603397
aI2581187
aI2483259
aI2478878
aI2487979
aI2690623
aI2575063
aI2556143
aI2445526
aI2671110
aI2571469
aI2506068
aI2520927
aI2463264
aI2604047
aI2607212
aI2708310
aI2708520
aI2667256
aI2545634
aI2641423
aI2641129
aI2557804
aI2556550
aI2816393
aI2575766
aI2568915
aI2526923
aI2568730
aI2535084
aI2725974
aI2697751
aI2543341
aI2535865
aI2550444
aI2542346
aI2565160
aI2744053
aI2661420
aI2571598
aI2642398
aI2506864
aI2652530
aI2499034
aI2582901
aI2597791
aI2487244
aI2676063
aI2488517
aI2566684
aI2720967
aI2464017
aI2670197
aI2582825
aI2541808
aI2610007
aI2460927
aI2631550
aI2590481
aI2485935
aI2512016
aI2819728
aI2527411
aI2467464
aI2634750
aI2611184
aI2560125
aI2588304
aI2678664
aI2458666
aI2658818
aI2586992
aI2519804
aI2639041
aI2625794
aI2557677
aI2635181
aI2505925
aI2602155
aI2538650
aI2618182
aI2672538
aI2399517
aI2597465
aI2677927
aI2496486
aI2534780
aI2684136
aI2532185
aI2705815
aI2548263
aI2588333
aI2484645
aI2558727
aI2559616
aI2670177
aI2531144
aI2549358
aI2383443
aI2600305
aI2560311
aI2483532
aI2555211
aI2487162
aI2547912
aI2662767
aI2685649
aI2575930
aI2615774
aI2666184
aI2560691
aI2504665
aI2580460
aI2376873
aI2449238
aI2591441
aI2752609
aI2548208
aI2518834
aI2386428
aI2550179
aI2675419
aI2570170
aI2420754
aI2650936
aI2472808
aI2476660
aI2586780
aI2647343
aI2498421
aI2543962
aI2540217
aI2572750
aI2582127
aI2722696
aI2445781
aI2582975
aI2698584
aI2483624
aI2593419
aI2500698
aI2631417
aI2547003
aI2568297
aI2702895
aI2587736
aI2569579
aI2609849
aI2672682
aI2626742
aI2709482
aI2459906
aI2655051
aI2467010
aI2572556
aI2566641
aI2565841
aI2567570
aI2645906
aI2655777
aI2604070
aI2544838
aI2551021
aI2629929
aI2595189
aI2598949
aI2564309
aI2689754
aI2668729
aI2501763
aI2699192
aI2571562
aI2660933
aI2570825
aI2606755
aI2636306
aI2548072
aI2537248
aI2660332
aI2524305
aI2578179
aI2539745
aI2618261
aI2626550
aI2609212
aI2527501
aI2620782
aI2498885
aI2527116
aI2588498
aI2637696
aI2648593
aI2733356
aI2588883
aI2590270
aI2577638
aI2660931
aI2470759
aI2611377
aI2570639
aI2476283
aI2639799
aI2811889
aI2669936
aI2432505
aI2607765
aI2555379
aI2546841
aI2553967
aI2493435
aI2591495
aI2733303
aI2449287
aI2661566
aI2538612
aI2424603
aI2544537
aI2661846
aI2421881
aI2573407
aI2541065
aI2633583
aI2602846
aI2611278
aI2577594
aI2603626
aI2597862
aI2567246
aI2599529
aI2630000
aI2634218
aI2726720
aI2671362
aI2475769
aI2633948
aI2628297
aI2522427
aI2533781
aI2589900
aI2401437
aI2579847
aI2549481
aI2531540
aI2508989
aI2667792
aI2464973
aI2666978
aI2546649
aI2558813
aI2640574
aI2764380
aI2383771
aI2681388
aI2563771
aI2468116
aI2453407
aI2543903
aI2632986
aI2708658
aI2503615
aI2506992
aI2652894
aI2735592
aI2669604
aI2660328
aI2436213
aI2714763
aI2694676
aI2492315
aI2415867
aI2619655
aI2517805
aI2692371
aI2532626
aI2726206
aI2598237
aI2559685
aI2530954
aI2610427
aI2402560
aI2599662
aI2670770
aI2615929
aI2492734
aI2708557
aI2602182
aI2474128
aI2606956
aI2688459
aI2629329
aI2500098
aI2591094
aI2577755
aI2605955
aI2692648
aI2625329
aI2485716
aI2602016
aI2640903
aI2531206
aI2689375
aI2603882
aI2605650
aI2542780
aI2793160
aI2505567
aI2683714
aI2644350
aI2404143
aI2569168
aI2623658
aI2562476
aI2574596
aI2598415
aI2549409
aI2495407
aI2606661
aI2708993
aI2603515
aI2561591
aI2588211
aI2564303
aI2451267
aI2680328
aI2567902
aI2486037
aI2501618
aI2555000
aI2553725
aI2509665
aI2481151
aI2485042
aI2645042
aI2601443
aI2643999
aI2605857
aI2620133
aI2544476
aI2529060
aI2523665
aI2519438
aI2570328
aI2510017
aI2572401
aI2646757
aI2604787
aI2577182
aI2504561
aI2660591
aI2425550
aI2669327
aI2409921
aI2574116
aI2573475
aI2588082
aI2506874
aI2600022
aI2373515
aI2730804
aI2644620
aI2655348
aI2578716
aI2723059
aI2640900
aI2594810
aI2546690
aI2522481
aI2475935
aI2554172
aI2614377
aI2599184
aI2574138
aI2649747
aI2544823
aI2698254
aI2597595
aI2468044
aI2420947
aI2648167
aI2476921
aI2680278
aI2575256
aI2719873
aI2675485
aI2516297
aI2574980
aI2502372
aI2568042
aI2709925
aI2643509
aI2694599
aI2579907
aI2646634
aI2563900
aI2606048
aI2720089
aI2602929
aI2603494
aI2504558
aI2621435
aI2545295
aI2669128
aI2519641
aI2548280
aI2737279
aI2665863
aI2432054
aI2687571
aI2542298
aI2681459
aI2554938
aI2701450
aI2726542
aI2518349
aI2609772
aI2528598
aI2498644
aI2690897
aI2552740
aI2514249
aI2598564
aI2492335
aI2560535
aI2530421
aI2601923
aI2415704
aI2553866
aI2693710
aI2559067
aI2622038
aI2690022
aI2507401
aI2647738
aI2669867
aI2504537
aI2635238
aI2559796
aI2543342
aI2675058
aI2444583
aI2597303
aI2611837
aI2580254
aI2749425
aI2642859
aI2658536
aI2503844
aI2604293
aI2502581
aI2431066
aI2547289
aI2733202
aI2602437
aI2570554
aI2572848
aI2678024
aI2686379
aI2520558
aI2606229
aI2507385
aI2665852
aI2574407
aI2558109
aI2481964
aI2546348
aI2485614
aI2483150
aI2605842
aI2650231
aI2502427
aI2638344
aI2562304
aI2729418
aI2555714
aI2482508
aI2639588
aI2565966
aI2525352
aI2621365
aI2446936
aI2749668
aI2523229
aI2546531
aI2630442
aI2575365
aI2571763
aI2630937
aI2420216
aI2639658
aI2670921
aI2596841
aI2632275
aI2565272
aI2589859
aI2506369
aI2498533
aI2541079
aI2509348
aI2655473
aI2677056
aI2580614
aI2498240
aI2440767
aI2382636
aI2616506
aI2730430
aI2540757
aI2621214
aI2452399
aI2652788
aI2677094
aI2725232
aI2568308
aI2527090
aI2719715
aI2578370
aI2685807
aI2514465
aI2445165
aI2547219
aI2551705
aI2487813
aI2630234
aI2708165
aI2611689
aI2679210
aI2566979
aI2500979
aI2669454
aI2416098
aI2596260
aI2592619
aI2708917
aI2560375
aI2531819
aI2539229
aI2557231
aI2650274
aI2464882
aI2549945
aI2622805
aI2460757
aI2547596
aI2509595
aI2625184
aI2554737
aI2638285
aI2605513
aI2521908
aI2563491
aI2551134
aI2658986
aI2631198
aI2641369
aI2571713
aI2459344
aI2606194
aI2618675
aI2526469
aI2428990
aI2611754
aI2565207
aI2388831
aI2554215
aI2541426
aI2515073
aI2543641
aI2573855
aI2469584
aI2757223
aI2598085
aI2675165
aI2575987
aI2625624
aI2590151
aI2505598
aI2569527
aI2562921
aI2606307
aI2619860
aI2591736
aI2449393
aI2579900
aI2640104
aI2539624
aI2633582
aI2649158
aI2732712
aI2632030
aI2597944
aI2682490
aI2538767
aI2548696
aI2534921
aI2628887
aI2522469
aI2529792
aI2494829
aI2592793
aI2611657
aI2739039
aI2697959
aI2527638
aI2682193
aI2679002
aI2538979
aI2504707
aI2701220
aI2774403
aI2615394
aI2422881
aI2601343
aI2475303
aI2653034
aI2696304
aI2748971
aI2478246
aI2555839
aI2613076
aI2596912
aI2492619
aI2743274
aI2619386
aI2666302
aI2648130
aI2668391
aI2634627
aI2468924
aI2533420
aI2635766
aI2732982
aI2553199
aI2602881
aI2604667
aI2785879
aI2491688
aI2489057
aI2759985
aI2601060
aI2601911
aI2627948
aI2505083
aI2553453
aI2478535
aI2522486
aI2570128
asI9
(lp10
I888103
aI897689
aI838181
aI872802
aI888257
aI887160
aI931454
aI928933
aI864262
aI891014
aI859187
aI855408
aI859304
aI941934
aI812289
aI887336
aI801660
aI855114
aI864258
aI898806
aI783506
aI929202
aI769738
aI835280
aI834267
aI849119
aI831470
aI855753
aI884674
aI798043
aI910320
aI853251
aI882041
aI849150
aI905000
aI841232
aI847380
aI879972
aI903912
aI854062
aI920412
aI858086
aI861136
aI859555
aI926243
aI809952
aI873725
aI884779
aI895658
aI845056
aI854396
aI839173
aI756630
aI875414
aI907445
aI874206
aI904253
aI892619
aI778663
aI894940
aI885941
aI914667
aI863557
aI868833
aI810395
aI830747
aI933577
aI873263
aI821509
aI865391
aI891429
aI844486
aI863264
aI915080
aI870570
aI775519
aI899374
aI804995
aI867825
aI868080
aI949413
aI880827
aI920604
aI872511
aI786867
aI889582
aI806225
aI824497
aI822550
aI928693
aI904566
aI871588
aI859519
aI974467
aI869166
aI960299
aI812661
aI815154
aI945913
aI830969
aI894011
aI871804
aI890657
aI835839
aI867408
aI861960
aI833080
aI872676
aI880573
aI827144
aI780170
aI867229
aI856426
aI800317
aI954389
aI897843
aI879508
aI903357
aI932118
aI868233
aI861918
aI873464
aI904129
aI906735
aI949908
aI941540
aI909530
aI880378
aI977127
aI865059
aI839820
aI899053
aI954539
aI800038
aI896169
aI850402
aI810525
aI822243
aI862258
aI843818
aI808601
aI832409
aI921468
aI877597
aI898395
aI854602
aI867344
aI838201
aI838967
aI996995
aI871326
aI970736
aI811938
aI944538
aI912232
aI930756
aI905976
aI808700
aI892568
aI874934
aI875420
aI893410
aI845373
aI881263
aI906843
aI913322
aI814959
aI889211
aI931064
aI859331
aI842188
aI855573
aI872847
aI876289
aI827521
aI902794
aI865525
aI903697
aI898408
aI816207
aI952791
aI856189
aI821906
aI835562
aI901289
aI927465
aI894451
aI868176
aI903194
aI867303
aI918121
aI878684
aI869372
aI875108
aI969040
aI915327
aI908240
aI843298
aI975951
aI851470
aI801928
aI886070
aI868043
aI811514
aI862372
aI857523
aI876691
aI865382
aI884999
aI938428
aI822451
aI856632
aI890815
aI784998
aI848271
aI834971
aI947526
aI868704
aI900641
aI938878
aI944124
aI881072
aI862255
aI874944
aI824784
aI914077
aI872849
aI840635
aI846996
aI839155
aI866221
aI874015
aI840999
aI923752
aI768978
aI866008
aI817063
aI955541
aI911592
aI897269
aI894897
aI922206
aI780728
aI844829
aI852879
aI833111
aI905609
aI948401
aI794816
aI815544
aI849912
aI902656
aI846183
aI866039
aI863114
aI860912
aI859754
aI906589
aI892700
aI931668
aI912354
aI821650
aI917830
aI837812
aI886389
aI863612
aI928133
aI886075
aI874529
aI909372
aI815589
aI809237
aI863403
aI953267
aI871838
aI844844
aI858895
aI787484
aI841485
aI905081
aI900857
aI743265
aI896841
aI839303
aI894913
aI858325
aI861887
aI811727
aI898717
aI947077
aI810264
aI777863
aI865958
aI855425
aI839449
aI846881
aI857049
aI780496
aI873772
aI833056
aI876972
aI867234
aI966480
aI839656
aI884542
aI827700
aI779512
aI871195
aI957503
aI870505
aI816516
aI927658
aI855531
aI834628
aI889967
aI895880
aI945304
aI929638
aI868176
aI859803
aI872049
aI834085
aI943184
aI901276
aI871208
aI887872
aI877703
aI855795
aI886267
aI811148
aI889657
aI811345
aI837565
aI877038
aI862346
aI854664
aI879049
aI859910
aI867783
aI873906
aI884622
aI862387
aI861022
aI877442
aI854593
aI888326
aI880249
aI804821
aI902999
aI840222
aI867511
aI884398
aI850388
aI862565
aI804488
aI860797
aI933789
aI834564
aI873280
aI912334
aI832166
aI884078
aI820184
aI774737
aI883502
aI934021
aI899178
aI833358
aI914346
aI879977
aI891146
aI852821
aI849672
aI814785
aI780441
aI876697
aI835597
aI883083
aI802777
aI918975
aI830819
aI887133
aI883883
aI875638
aI848933
aI798409
aI844537
aI885460
aI931242
aI865569
aI865696
aI839192
aI918241
aI919308
aI791770
aI947710
aI823075
aI824965
aI889228
aI1005007
aI900192
aI881514
aI864896
aI875584
aI842358
aI856760
aI874192
aI835496
aI819350
aI887984
aI1004156
aI891946
aI881876
aI797833
aI933807
aI843440
aI839454
aI881901
aI800115
aI900028
aI880479
aI959882
aI911052
aI897522
aI868403
aI884080
aI903064
aI824041
aI811658
aI944388
aI831916
aI869936
aI819903
aI906029
aI883581
aI951046
aI917784
aI851859
aI829820
aI876956
aI853754
aI936819
aI952611
aI845030
aI874461
aI874623
aI875334
aI877920
aI833984
aI934721
aI904460
aI871683
aI891462
aI834689
aI837671
aI912977
aI840935
aI936909
aI872055
aI860674
aI845948
aI818451
aI899184
aI928048
aI792861
aI829259
aI953940
aI851910
aI813118
aI916740
aI901878
aI904362
aI881941
aI913946
aI846444
aI881188
aI917422
aI878240
aI885589
aI873899
aI863227
aI903004
aI875214
aI879357
aI881269
aI901821
aI907126
aI808216
aI861718
aI895165
aI811969
aI845612
aI872827
aI843584
aI902831
aI894693
aI808015
aI805888
aI835278
aI852088
aI863830
aI863436
aI815960
aI788577
aI927170
aI841864
aI818382
aI821465
aI834019
aI888371
aI897910
aI892823
aI832989
aI860383
aI971387
aI859065
aI830275
aI880148
aI829916
aI844819
aI870678
aI952958
aI824867
aI857915
aI799443
aI855857
aI904440
aI868938
aI765814
aI880794
aI829025
aI863786
aI792773
aI921111
aI825884
aI856817
aI834153
aI867478
aI877517
aI906795
aI774831
aI886444
aI909113
aI783582
aI838825
aI845501
aI926031
aI841468
aI846991
aI975440
aI881051
aI857230
aI897890
aI984814
aI897076
aI921830
aI814356
aI914275
aI822599
aI896433
aI839538
aI848534
aI878633
aI939592
aI892934
aI914515
aI921630
aI819142
aI922162
aI880198
aI858610
aI878594
aI946087
aI917026
aI830620
aI915954
aI856908
aI904054
aI844555
aI908544
aI913302
aI811734
aI866930
aI887141
aI823525
aI892442
aI910763
aI903800
aI890656
aI842499
aI826894
aI872922
aI851011
aI828908
aI849072
aI895951
aI871172
aI956342
aI849212
aI883190
aI919586
aI923850
aI844425
aI876587
aI850517
aI813556
aI934963
aI969770
aI903860
aI822469
aI871737
aI833281
aI807073
aI843421
aI811536
aI878551
aI880626
aI832509
aI860801
aI835825
aI774341
aI868461
aI924161
aI764470
aI882495
aI889599
aI880539
aI876517
aI872676
aI882317
aI859138
aI915041
aI848065
aI890729
aI881504
aI897560
aI921911
aI918916
aI821595
aI915312
aI934132
aI849092
aI850814
aI876942
aI815418
aI882269
aI847162
aI883819
aI834820
aI906023
aI840757
aI946298
aI895556
aI862343
aI920651
aI915810
aI797094
aI928847
aI841551
aI817199
aI786990
aI915427
aI904234
aI928722
aI815384
aI858141
aI937553
aI925732
aI919462
aI911575
aI898729
aI893390
aI865855
aI877453
aI790909
aI909662
aI822588
aI934662
aI938636
aI988505
aI871242
aI905756
aI839446
aI909609
aI780441
aI848587
aI864819
aI876326
aI832556
aI958750
aI855762
aI839986
aI907177
aI959170
aI910038
aI859669
aI884744
aI877807
aI910012
aI931312
aI892423
aI826454
aI891483
aI902360
aI823822
aI908976
aI942487
aI901843
aI881460
aI971317
aI840218
aI874280
aI878512
aI737391
aI931196
aI908930
aI927264
aI876471
aI861558
aI839393
aI793910
aI837227
aI938157
aI890593
aI823405
aI887844
aI815294
aI809799
aI925802
aI850726
aI843405
aI850901
aI848376
aI831412
aI811918
aI826828
aI845578
aI863097
aI901831
aI886193
aI847103
aI847748
aI861046
aI885725
aI830571
aI824356
aI856514
aI849986
aI885041
aI902588
aI882766
aI874321
aI852803
aI897853
aI813459
aI870367
aI830213
aI828730
aI871322
aI911959
aI841085
aI887748
aI757068
aI983142
aI902995
aI942218
aI854030
aI923187
aI932347
aI866163
aI838755
aI871101
aI869773
aI834688
aI917761
aI881911
aI917884
aI909808
aI885536
aI904828
aI885643
aI863680
aI781484
aI878313
aI782407
aI948316
aI873820
aI943036
aI861644
aI838639
aI866281
aI897827
aI890338
aI966611
aI849185
aI942742
aI864642
aI875434
aI841941
aI886298
aI955899
aI881615
aI904177
aI826704
aI807657
aI872127
aI884751
aI842193
aI873977
aI901480
aI931072
aI812536
aI895730
aI862286
aI927152
aI853011
aI909359
aI954159
aI871482
aI879603
aI835907
aI884495
aI885281
aI861631
aI872727
aI872613
aI877712
aI878500
aI830312
aI841003
aI780271
aI848926
aI894506
aI901783
aI942535
aI853027
aI799491
aI935543
aI887278
aI883945
aI899936
aI844387
aI849466
aI867025
aI800103
aI881692
aI877901
aI933200
aI961365
aI947753
aI869389
aI857900
aI873242
aI798314
aI829086
aI827857
aI938919
aI924934
aI899554
aI896926
aI933946
aI916040
aI773155
aI855173
aI832117
aI892489
aI859501
aI843636
aI826188
aI875512
aI834691
aI901721
aI912976
aI932784
aI796315
aI870841
aI878840
aI938229
aI853961
aI804447
aI956206
aI874602
aI857960
aI915429
aI813707
aI903910
aI805871
aI803220
aI889007
aI871185
aI838150
aI889826
aI838094
aI846455
aI875846
aI884239
aI870924
aI830817
aI872694
aI852650
aI840006
aI867423
aI830388
aI881236
aI973715
aI881333
aI833459
aI806278
aI799749
aI875586
aI871095
aI855839
aI918309
aI832246
aI943600
aI896734
aI949276
aI842036
aI837209
aI902040
aI907443
aI867625
aI798582
aI840023
aI917760
aI868462
aI830823
aI932664
aI923793
aI856504
aI912534
aI843763
aI843703
aI932898
aI804682
aI901028
aI916295
aI914375
aI874199
aI875781
aI872564
aI854778
aI916528
aI806315
aI817022
aI892820
aI787883
aI858226
aI866741
aI926921
aI839536
aI929862
aI870394
aI862845
aI897049
aI917741
aI913086
aI872052
aI871297
aI837295
aI846664
aI840564
aI870731
aI853462
aI848855
aI864597
aI887991
aI792365
aI837311
aI903711
aI813822
aI856316
aI840340
aI822669
aI911357
aI893490
aI900234
aI857232
aI927025
aI859645
aI858783
aI839433
aI851377
aI876941
aI951685
aI872447
aI780736
aI833473
aI897891
aI847116
aI863289
aI910025
aI955425
aI877799
aI872129
aI885715
aI854457
aI867309
aI810260
aI855366
aI899747
aI787616
aI811372
aI860573
aI925324
aI927678
aI903498
aI830462
aI893469
aI863246
aI873969
aI852035
aI892566
aI957886
aI821274
aI768579
aI919011
aI830219
aI940642
aI888633
aI947394
aI822770
aI864774
aI861103
aI897458
aI824274
aI911027
aI884450
aI932561
aI922516
aI930961
aI864337
aI818161
aI823161
aI851443
aI919788
aI879611
aI878406
aI849609
aI973316
aI847884
aI800222
aI973693
aI893914
aI937808
aI864270
aI820980
aI852717
aI888085
aI870929
aI897162
asI10
(lp11
I280725
aI317372
aI276049
aI275276
aI264301
aI281213
aI323109
aI303990
aI276781
aI283966
aI299754
aI301884
aI276703
aI312330
aI253103
aI285499
aI259419
aI275149
aI280488
aI286060
aI240385
aI308135
aI238625
aI254459
aI294507
aI268932
aI301345
aI268418
aI289164
aI236059
aI285656
aI279641
aI296811
aI270497
aI295818
aI288781
aI266675
aI254398
aI277619
aI270643
aI319849
aI262418
aI277368
aI273588
aI299383
aI250694
aI306997
aI283992
aI280879
aI240378
aI284781
aI284355
aI233896
aI291884
aI304172
aI276098
aI313093
aI282032
aI268853
aI286784
aI304916
aI310864
aI283140
aI288901
aI264993
aI256358
aI296734
aI284039
aI270997
aI263645
aI279383
aI288557
aI271321
aI302795
aI284601
aI220254
aI308218
aI265064
aI269200
aI303389
aI343027
aI280971
aI292051
aI284300
aI238159
aI319388
aI257275
aI263558
aI271702
aI301667
aI285663
aI277427
aI261389
aI332420
aI278303
aI316349
aI266722
aI239416
aI326757
aI281210
aI267378
aI314680
aI290732
aI286325
aI249580
aI271872
aI294682
aI276026
aI292560
aI265665
aI237412
aI281822
aI259737
aI249864
aI310853
aI311352
aI292777
aI294616
aI295445
aI285772
aI261308
aI294615
aI309505
aI304434
aI298437
aI318845
aI311430
aI306095
aI320453
aI279376
aI250930
aI302642
aI309888
aI235631
aI272262
aI239559
aI246026
aI292735
aI264354
aI277544
aI278476
aI279641
aI276915
aI285045
aI281368
aI291475
aI288016
aI298063
aI289861
aI324761
aI293412
aI336698
aI264974
aI324828
aI313149
aI307499
aI320397
aI247366
aI320095
aI281243
aI299249
aI312990
aI276061
aI300762
aI291986
aI294136
aI262512
aI270910
aI313826
aI269402
aI258185
aI318314
aI265570
aI285606
aI250551
aI300768
aI275012
aI289415
aI288165
aI260191
aI314465
aI287047
aI267008
aI259261
aI316564
aI307592
aI296519
aI274148
aI302913
aI292507
aI277892
aI269132
aI279790
aI307218
aI298231
aI280973
aI270155
aI263509
aI338171
aI295156
aI239097
aI285708
aI279312
aI245992
aI234492
aI277141
aI285778
aI271959
aI291157
aI315205
aI256282
aI266026
aI292646
aI247398
aI305925
aI257071
aI320599
aI298874
aI294964
aI322656
aI303806
aI279101
aI292756
aI280117
aI244238
aI279773
aI282478
aI292972
aI273198
aI281129
aI265435
aI281509
aI265326
aI308619
aI240368
aI253198
aI267448
aI334656
aI305692
aI294880
aI298931
aI311577
aI234937
aI279724
aI278342
aI266391
aI312677
aI312083
aI250975
aI259875
aI289344
aI292132
aI276783
aI267100
aI298188
aI286354
aI255185
aI308741
aI310081
aI286959
aI290266
aI271530
aI287449
aI234945
aI297007
aI278487
aI323639
aI303193
aI280542
aI290115
aI243528
aI266637
aI292076
aI334882
aI309019
aI266223
aI284426
aI273142
aI305451
aI329390
aI283732
aI222968
aI274642
aI280305
aI303094
aI288149
aI275091
aI246985
aI272242
aI315521
aI240351
aI249325
aI262024
aI289624
aI274095
aI273291
aI285614
aI252766
aI304274
aI282603
aI278985
aI275376
aI355858
aI248358
aI286847
aI312943
aI243214
aI290866
aI300663
aI280451
aI272502
aI291098
aI280899
aI286316
aI286053
aI284067
aI304139
aI319686
aI288165
aI305588
aI290770
aI247243
aI311034
aI298507
aI288406
aI292436
aI274156
aI267943
aI283921
aI251498
aI277714
aI279435
aI305431
aI277222
aI281151
aI280690
aI303323
aI306568
aI279292
aI278279
aI291772
aI290198
aI292538
aI276616
aI286421
aI286780
aI284516
aI254516
aI305012
aI283030
aI280590
aI293685
aI300019
aI299385
aI260495
aI266475
aI331005
aI281825
aI289747
aI297547
aI253156
aI299542
aI259559
aI235800
aI292704
aI294510
aI291626
aI248191
aI317392
aI279357
aI303823
aI289927
aI257573
aI277667
aI252820
aI295972
aI278129
aI270639
aI238037
aI289402
aI260209
aI268914
aI292648
aI272447
aI262666
aI269271
aI253494
aI286676
aI306489
aI275541
aI291940
aI258891
aI299448
aI302156
aI277131
aI314373
aI259082
aI277363
aI294541
aI332421
aI324451
aI281032
aI266121
aI270660
aI243181
aI275302
aI282011
aI289978
aI267949
aI319380
aI356842
aI286433
aI301215
aI263147
aI326133
aI267958
aI274622
aI326650
aI253546
aI285865
aI292028
aI320610
aI299694
aI309600
aI288424
aI288913
aI281580
aI252020
aI238039
aI304735
aI247388
aI305484
aI257014
aI312024
aI284947
aI316713
aI295041
aI275010
aI260285
aI267081
aI281581
aI328606
aI334664
aI249944
aI280639
aI267922
aI316210
aI268441
aI293523
aI312751
aI333401
aI283937
aI305003
aI280182
aI248804
aI292248
aI294875
aI321342
aI288782
aI300116
aI270541
aI291587
aI296148
aI316577
aI244328
aI301518
aI336743
aI274688
aI273387
aI300326
aI283802
aI303129
aI301933
aI306429
aI289827
aI278257
aI316574
aI280974
aI283947
aI286807
aI277204
aI300344
aI293374
aI310109
aI314179
aI287266
aI291302
aI266046
aI274724
aI297111
aI274051
aI253446
aI277958
aI273561
aI291681
aI290489
aI246314
aI266749
aI263219
aI296568
aI274620
aI283583
aI252911
aI239789
aI304913
aI282361
aI291156
aI249999
aI263698
aI293857
aI268075
aI277028
aI260476
aI275513
aI339985
aI316100
aI262412
aI304186
aI300744
aI296901
aI271744
aI311546
aI266195
aI279969
aI289453
aI279121
aI307060
aI271026
aI250470
aI308319
aI254585
aI308049
aI219687
aI305092
aI276924
aI281351
aI269543
aI269984
aI289633
aI296289
aI248177
aI282587
aI288519
aI267216
aI258973
aI281435
aI316693
aI302978
aI275906
aI340285
aI282073
aI316622
aI292447
aI339915
aI294851
aI309791
aI263362
aI298523
aI262924
aI311624
aI279941
aI292911
aI266412
aI326102
aI316193
aI298462
aI327126
aI235451
aI280003
aI305291
aI260048
aI286218
aI307742
aI294444
aI268969
aI305389
aI270009
aI302355
aI256639
aI285812
aI290425
aI248002
aI304150
aI291489
aI271315
aI304533
aI296289
aI306342
aI289619
aI278083
aI260071
aI271292
aI306680
aI280228
aI303165
aI304574
aI288891
aI294447
aI271698
aI294833
aI329606
aI290995
aI279080
aI300996
aI282544
aI274673
aI329129
aI334911
aI278507
aI277260
aI288132
aI271190
aI238274
aI275628
aI281587
aI305268
aI276370
aI268898
aI247238
aI271767
aI269084
aI298336
aI296379
aI241766
aI308646
aI302542
aI307462
aI277482
aI289379
aI292246
aI284476
aI307189
aI260173
aI286396
aI288176
aI306343
aI283726
aI296836
aI251650
aI305198
aI328173
aI289577
aI281184
aI287893
aI279132
aI301556
aI272590
aI284616
aI262817
aI308758
aI296274
aI340219
aI318103
aI287702
aI322385
aI273818
aI265361
aI324617
aI267623
aI258301
aI249201
aI324645
aI297482
aI301304
aI258589
aI281360
aI298165
aI303047
aI295601
aI293484
aI333908
aI275434
aI269021
aI292619
aI241548
aI306527
aI269189
aI310403
aI373780
aI366023
aI257672
aI332836
aI264008
aI315582
aI224171
aI248535
aI270479
aI291604
aI299420
aI299605
aI257505
aI269918
aI294141
aI319066
aI295743
aI284531
aI298279
aI290821
aI307777
aI298521
aI315770
aI272593
aI296486
aI285020
aI251827
aI300127
aI321086
aI323514
aI295458
aI306725
aI267599
aI261099
aI264141
aI235186
aI354528
aI294605
aI330223
aI308767
aI269209
aI262619
aI233307
aI279082
aI338793
aI310472
aI257531
aI275533
aI255334
aI239403
aI326555
aI283280
aI275320
aI299611
aI284908
aI263514
aI270430
aI269244
aI288050
aI273764
aI292201
aI310348
aI286720
aI234475
aI281469
aI313334
aI249027
aI259276
aI281028
aI288890
aI287092
aI285850
aI289800
aI304993
aI290847
aI295024
aI285181
aI288047
aI288854
aI251843
aI289466
aI308018
aI281102
aI299874
aI252448
aI335523
aI316212
aI284873
aI260336
aI334861
aI331229
aI269321
aI259176
aI277219
aI278765
aI260435
aI309749
aI283615
aI301262
aI311123
aI292604
aI290794
aI303361
aI265194
aI264732
aI290569
aI234853
aI323792
aI278173
aI308317
aI274595
aI276707
aI285370
aI319862
aI284818
aI328911
aI276640
aI315249
aI270253
aI260323
aI263317
aI293341
aI337337
aI281050
aI322242
aI248238
aI245810
aI308580
aI265029
aI273687
aI285652
aI277114
aI320545
aI262138
aI281601
aI302373
aI301299
aI276849
aI313921
aI310392
aI291015
aI285695
aI240202
aI323622
aI286133
aI287213
aI313124
aI283881
aI283740
aI316123
aI259192
aI256731
aI257627
aI264066
aI270897
aI310990
aI323365
aI261651
aI257250
aI300112
aI306329
aI322379
aI300035
aI276295
aI267605
aI250104
aI243402
aI291086
aI309671
aI329040
aI303208
aI328932
aI297159
aI292486
aI269372
aI266101
aI273267
aI255666
aI308860
aI312100
aI308717
aI315433
aI310438
aI292637
aI244035
aI279110
aI269946
aI275868
aI283980
aI271752
aI293265
aI295796
aI273838
aI317072
aI312665
aI313418
aI262818
aI289381
aI274224
aI318079
aI279784
aI245928
aI341580
aI303876
aI291058
aI303878
aI272774
aI276400
aI269288
aI235088
aI274181
aI296176
aI262117
aI287459
aI255135
aI274395
aI277426
aI281433
aI269379
aI270464
aI307325
aI288926
aI269923
aI308493
aI275953
aI315341
aI342422
aI283063
aI279212
aI250515
aI277091
aI283334
aI257824
aI282548
aI287363
aI254432
aI307229
aI276156
aI286846
aI274604
aI268179
aI284815
aI325798
aI280992
aI253925
aI305935
aI319079
aI273895
aI263325
aI292318
aI307349
aI272353
aI304387
aI280223
aI264845
aI314408
aI266099
aI294412
aI317612
aI277382
aI286879
aI303096
aI296169
aI273130
aI289586
aI261521
aI245321
aI301218
aI229812
aI265354
aI276031
aI312912
aI272272
aI293493
aI262364
aI287865
aI316098
aI312650
aI297407
aI255767
aI279715
aI270622
aI274492
aI254861
aI279898
aI296490
aI300473
aI277026
aI308252
aI248568
aI272487
aI305799
aI269177
aI272073
aI267033
aI279855
aI270184
aI311073
aI275013
aI298454
aI313327
aI267714
aI271399
aI251299
aI264816
aI281287
aI324576
aI302341
aI252720
aI273981
aI295726
aI287544
aI255360
aI316567
aI324667
aI302430
aI289882
aI285911
aI271749
aI268977
aI287576
aI267694
aI321868
aI254435
aI251202
aI278947
aI316450
aI308030
aI312533
aI251754
aI281389
aI245818
aI312811
aI289798
aI303736
aI299033
aI251035
aI232625
aI317283
aI288149
aI340222
aI271782
aI319001
aI264813
aI272122
aI300625
aI280786
aI287605
aI269157
aI275116
aI277857
aI307376
aI334819
aI280319
aI303647
aI255182
aI264373
aI278353
aI311154
aI298102
aI281417
aI321477
aI285246
aI231107
aI303848
aI300726
aI324445
aI284580
aI275545
aI300880
aI292855
aI293962
aI322312
asI11
(lp12
I77430
aI113091
aI87810
aI81652
aI92709
aI85345
aI98113
aI95264
aI87463
aI85296
aI94153
aI100998
aI81264
aI91622
aI78175
aI80872
aI75420
aI90538
aI93022
aI86932
aI75640
aI90193
aI72183
aI72757
aI106478
aI92196
aI110638
aI80559
aI87329
aI66791
aI84329
aI93022
aI95052
aI98430
aI98271
aI98664
aI80646
aI68181
aI90965
aI83394
aI94943
aI72315
aI88156
aI90484
aI82953
aI73429
aI97694
aI80272
aI85895
aI63158
aI93982
aI103813
aI83536
aI100796
aI95172
aI89527
aI102543
aI103164
aI94300
aI83921
aI90784
aI100234
aI83186
aI89053
aI90026
aI74271
aI81014
aI85960
aI87682
aI67555
aI76972
aI102084
aI82145
aI98633
aI82060
aI65793
aI101907
aI86581
aI74329
aI109285
aI103252
aI84438
aI87930
aI92316
aI65367
aI107595
aI69172
aI81386
aI90280
aI89164
aI90197
aI85240
aI91030
aI115366
aI74787
aI93620
aI84023
aI65599
aI111406
aI94308
aI73407
aI115186
aI82144
aI90987
aI64588
aI81093
aI90537
aI85768
aI87391
aI79028
aI66504
aI80680
aI67935
aI80560
aI100046
aI94861
aI90085
aI87622
aI89908
aI86843
aI86896
aI89004
aI93998
aI99005
aI87177
aI98374
aI95112
aI94206
aI88735
aI91398
aI66648
aI105768
aI97288
aI72579
aI87181
aI66735
aI72729
aI107125
aI74916
aI86217
aI95703
aI94451
aI87672
aI86012
aI94134
aI93430
aI96449
aI93678
aI92309
aI103804
aI97431
aI115225
aI80629
aI110088
aI96775
aI95203
aI113834
aI74993
aI105164
aI83809
aI99374
aI107956
aI72776
aI97505
aI78189
aI84558
aI86798
aI73227
aI86228
aI75982
aI68159
aI104169
aI69853
aI93353
aI70708
aI100188
aI89280
aI83493
aI83307
aI80043
aI95281
aI83665
aI80499
aI88898
aI107039
aI92907
aI91304
aI81127
aI102261
aI98917
aI81396
aI70195
aI92192
aI107815
aI87483
aI83282
aI84704
aI76712
aI105495
aI88627
aI62622
aI92132
aI90508
aI84262
aI52808
aI99654
aI86926
aI81144
aI94946
aI98829
aI71189
aI87022
aI89295
aI82772
aI96627
aI77097
aI104755
aI101761
aI94812
aI92405
aI85342
aI97077
aI101481
aI92479
aI71426
aI73322
aI98334
aI100337
aI80977
aI83625
aI80040
aI97798
aI80500
aI94571
aI74206
aI63229
aI91533
aI110406
aI103413
aI84841
aI100567
aI93987
aI85924
aI86722
aI98300
aI78144
aI93095
aI90757
aI82710
aI92468
aI97059
aI90816
aI85529
aI82850
aI117749
aI85350
aI73226
aI86045
aI97711
aI95640
aI84141
aI90387
aI79427
aI69842
aI96790
aI76986
aI103278
aI103260
aI91121
aI86799
aI74230
aI90010
aI81872
aI115080
aI104370
aI72800
aI97672
aI87676
aI99373
aI117347
aI82187
aI66247
aI77112
aI90610
aI106415
aI93653
aI82809
aI92796
aI73752
aI98303
aI68780
aI69012
aI75818
aI94391
aI98044
aI87141
aI81627
aI81180
aI96289
aI88160
aI88935
aI88017
aI115960
aI71520
aI92462
aI103765
aI70174
aI80147
aI86564
aI93670
aI77099
aI84266
aI95667
aI108206
aI87892
aI75836
aI87908
aI100764
aI88974
aI97454
aI101542
aI73967
aI93530
aI82551
aI91131
aI99825
aI87801
aI84255
aI87400
aI73338
aI78117
aI87693
aI100038
aI79406
aI76969
aI88814
aI101221
aI97238
aI90217
aI73544
aI90918
aI102384
aI100889
aI75077
aI83799
aI95433
aI82780
aI78287
aI89512
aI85407
aI80634
aI97854
aI100970
aI97294
aI82792
aI81739
aI107345
aI88890
aI87166
aI98209
aI80133
aI97363
aI84665
aI69819
aI90110
aI84853
aI99581
aI66833
aI105527
aI87303
aI100758
aI96780
aI77649
aI83442
aI72317
aI94502
aI94173
aI74367
aI78317
aI93029
aI66559
aI88586
aI93891
aI83342
aI77219
aI88495
aI79735
aI82170
aI82343
aI80896
aI89989
aI87417
aI89225
aI93036
aI98633
aI110103
aI83046
aI86191
aI89573
aI96630
aI111348
aI86320
aI75079
aI76675
aI61889
aI82914
aI89583
aI102630
aI76606
aI95159
aI116909
aI86766
aI92270
aI90865
aI110799
aI85109
aI84032
aI110928
aI71712
aI94010
aI85925
aI95985
aI96484
aI102193
aI87688
aI102951
aI91625
aI76833
aI66220
aI83224
aI75591
aI99310
aI68778
aI96340
aI83922
aI93696
aI88353
aI86165
aI91452
aI88546
aI84295
aI115840
aI105033
aI78680
aI88014
aI79286
aI103939
aI89218
aI84746
aI91257
aI113081
aI87890
aI98589
aI76414
aI76676
aI100662
aI86301
aI109574
aI86295
aI111761
aI96674
aI94202
aI95718
aI110075
aI85789
aI100451
aI119974
aI100697
aI80436
aI90131
aI76705
aI93378
aI99022
aI95911
aI90488
aI79769
aI106620
aI86248
aI95118
aI96878
aI80484
aI97107
aI85310
aI113846
aI110841
aI81720
aI83190
aI83104
aI94256
aI96824
aI89058
aI63680
aI87471
aI76037
aI84731
aI97841
aI79503
aI79720
aI74731
aI106594
aI89029
aI75619
aI74764
aI69066
aI84650
aI88266
aI94408
aI75405
aI81623
aI90866
aI75950
aI89289
aI75299
aI87418
aI94579
aI97722
aI79669
aI106471
aI90447
aI96417
aI79467
aI85114
aI94699
aI79903
aI97884
aI100949
aI96138
aI87322
aI66941
aI97592
aI83544
aI97407
aI56369
aI86712
aI98175
aI83130
aI92452
aI81317
aI90686
aI90432
aI84212
aI87457
aI85666
aI91137
aI69039
aI82714
aI88130
aI109394
aI84502
aI118746
aI86112
aI122375
aI77021
aI106826
aI85775
aI90007
aI81550
aI98098
aI73206
aI94799
aI92494
aI97673
aI79371
aI109269
aI106387
aI82805
aI100837
aI69567
aI79659
aI93817
aI74950
aI90956
aI85900
aI86424
aI85961
aI90328
aI73795
aI95551
aI72519
aI78727
aI76251
aI74581
aI98603
aI85690
aI89648
aI95867
aI78993
aI98760
aI79732
aI85335
aI84231
aI83147
aI97366
aI89557
aI102771
aI101983
aI89106
aI78989
aI85352
aI87835
aI106904
aI84233
aI80539
aI99524
aI85763
aI89082
aI109207
aI113076
aI84532
aI88666
aI96704
aI88168
aI60317
aI82272
aI86892
aI96991
aI90557
aI91792
aI78093
aI76753
aI93071
aI94681
aI93237
aI79127
aI106289
aI91670
aI106615
aI92338
aI96343
aI89723
aI96534
aI100516
aI84697
aI85279
aI91970
aI88643
aI79408
aI78702
aI71818
aI88528
aI112848
aI87471
aI97429
aI78351
aI88561
aI95883
aI85197
aI80627
aI79788
aI106251
aI110762
aI113279
aI113010
aI97740
aI111154
aI88579
aI88466
aI106797
aI85679
aI72457
aI82077
aI104368
aI93871
aI97177
aI79194
aI86648
aI94853
aI103211
aI90542
aI84449
aI111382
aI82154
aI95590
aI85998
aI67050
aI100281
aI87691
aI93925
aI134566
aI120937
aI70857
aI118268
aI75679
aI93696
aI67981
aI73639
aI70529
aI89875
aI102357
aI85047
aI76712
aI89107
aI90601
aI94704
aI105280
aI82274
aI99415
aI85038
aI103122
aI84871
aI107934
aI87315
aI84977
aI91537
aI76638
aI87726
aI92300
aI114867
aI90013
aI95764
aI73772
aI83556
aI74357
aI74122
aI121787
aI91498
aI112170
aI100346
aI80043
aI86854
aI61321
aI88853
aI106727
aI86021
aI86694
aI73248
aI73175
aI66099
aI105863
aI96041
aI89304
aI99462
aI95356
aI81082
aI89247
aI86263
aI95920
aI81021
aI83198
aI106769
aI102050
aI62591
aI89792
aI101900
aI78809
aI72115
aI92145
aI88277
aI85970
aI86002
aI78993
aI110623
aI90474
aI84000
aI95648
aI90860
aI95964
aI81639
aI80659
aI91067
aI90797
aI96512
aI84296
aI104273
aI105786
aI74600
aI70009
aI128872
aI115061
aI87675
aI82322
aI74681
aI79208
aI78890
aI91293
aI87401
aI98259
aI103205
aI86284
aI89102
aI100772
aI76114
aI89685
aI100461
aI72795
aI107376
aI76367
aI87283
aI77559
aI90945
aI93389
aI95455
aI93079
aI109035
aI91413
aI97870
aI97711
aI69202
aI83974
aI88892
aI104173
aI77998
aI91911
aI63925
aI78570
aI108814
aI73008
aI86070
aI98902
aI83717
aI91573
aI79560
aI96525
aI103025
aI88621
aI92077
aI104806
aI102782
aI85842
aI98524
aI63579
aI99061
aI83615
aI97233
aI98294
aI86891
aI82254
aI122044
aI84299
aI65287
aI81394
aI83422
aI82282
aI108251
aI91809
aI85547
aI76466
aI91470
aI102460
aI104235
aI91726
aI87582
aI76836
aI73164
aI67551
aI98536
aI107450
aI110319
aI81401
aI98790
aI97413
aI93787
aI69323
aI75655
aI96185
aI84388
aI97257
aI96823
aI105173
aI99235
aI100282
aI87489
aI70300
aI88560
aI77879
aI87682
aI88255
aI76234
aI91954
aI92066
aI78820
aI95178
aI105359
aI105268
aI81088
aI97170
aI68988
aI103300
aI75828
aI77210
aI115268
aI96811
aI94395
aI102093
aI78547
aI86669
aI83740
aI70675
aI86025
aI108035
aI76072
aI88034
aI68198
aI79403
aI89903
aI82791
aI89294
aI75077
aI106931
aI88690
aI84537
aI99675
aI96578
aI117216
aI112350
aI82702
aI94132
aI79489
aI89376
aI88450
aI78456
aI94162
aI80584
aI70314
aI94342
aI77876
aI75146
aI80257
aI83216
aI85848
aI103366
aI96384
aI85056
aI97832
aI101302
aI83473
aI82627
aI75746
aI99460
aI77852
aI106094
aI109787
aI77526
aI96839
aI83063
aI95142
aI103914
aI81798
aI91612
aI87300
aI87647
aI94006
aI93242
aI85142
aI75308
aI91759
aI64060
aI79930
aI86565
aI100224
aI75526
aI88703
aI75643
aI96410
aI99758
aI100276
aI96804
aI68124
aI91445
aI83493
aI90177
aI75695
aI87828
aI92139
aI105763
aI77172
aI106526
aI72976
aI78302
aI87519
aI85055
aI86584
aI75947
aI96140
aI76112
aI107183
aI82058
aI96060
aI102334
aI80848
aI80042
aI73083
aI71570
aI86268
aI99278
aI100608
aI84275
aI93979
aI90627
aI94635
aI69453
aI101644
aI94993
aI106816
aI83507
aI91117
aI78877
aI74834
aI101297
aI79401
aI101419
aI75697
aI74213
aI79582
aI107440
aI95615
aI117142
aI86034
aI80341
aI68924
aI101898
aI92017
aI102685
aI89326
aI72340
aI72705
aI106126
aI92105
aI102474
aI85022
aI108924
aI75259
aI76496
aI98557
aI87022
aI107620
aI76048
aI76680
aI79442
aI104217
aI115795
aI79383
aI97260
aI74014
aI79785
aI79681
aI108330
aI95943
aI89400
aI104746
aI85059
aI63172
aI88531
aI93808
aI107843
aI91596
aI91325
aI115339
aI82202
aI88420
aI106098
asI12
(lp13
I18349
aI38216
aI29217
aI20662
aI43680
aI23171
aI29443
aI36194
aI24251
aI32646
aI28897
aI37734
aI33069
aI22979
aI20724
aI20505
aI24601
aI40773
aI31086
aI33539
aI24875
aI28217
aI29115
aI23438
aI35576
aI31089
aI37569
aI20389
aI22604
aI16407
aI33672
aI31523
aI29732
aI38792
aI42508
aI33149
aI21992
aI26685
aI37706
aI31501
aI29109
aI17175
aI32668
aI32097
aI24724
aI18657
aI30644
aI19399
aI29031
aI25307
aI25238
aI36038
aI46617
aI33867
aI25328
aI30307
aI27561
aI51961
aI26906
aI21104
aI23275
aI33220
aI25511
aI33611
aI29487
aI29624
aI18820
aI32120
aI29030
aI14857
aI18147
aI33930
aI21000
aI27068
aI20314
aI22929
aI32888
aI29037
aI22594
aI46619
aI26442
aI21890
aI33286
aI35603
aI15326
aI29951
aI21522
aI31264
aI35876
aI27393
aI31415
aI28050
aI42980
aI44004
aI17320
aI29778
aI28394
aI15721
aI42729
aI42072
aI27747
aI37928
aI25742
aI28750
aI15278
aI32791
aI27844
aI33086
aI32557
aI24708
aI15722
aI19793
aI20336
aI27006
aI38329
aI23669
aI33984
aI23203
aI33769
aI26746
aI31541
aI27532
aI29102
aI33115
aI37897
aI35819
aI24572
aI28943
aI22611
aI35067
aI26288
aI36191
aI30482
aI24008
aI39748
aI27602
aI23670
aI35880
aI23975
aI22120
aI36181
aI31097
aI30484
aI27216
aI42745
aI24031
aI37023
aI40439
aI29889
aI32970
aI31579
aI38004
aI30705
aI45933
aI30311
aI30294
aI38889
aI19520
aI38905
aI33307
aI27297
aI34502
aI16138
aI30681
aI17670
aI21128
aI35421
aI22557
aI20172
aI28359
aI20581
aI33701
aI21708
aI31120
aI22896
aI32280
aI36016
aI26493
aI25501
aI26355
aI24484
aI26376
aI26300
aI31690
aI47013
aI29753
aI27980
aI31341
aI34567
aI33685
aI37080
aI21736
aI30532
aI41062
aI22511
aI26990
aI34075
aI25129
aI37945
aI27548
aI18931
aI30168
aI24922
aI35203
aI10407
aI35846
aI26938
aI25704
aI26399
aI36903
aI16884
aI30856
aI29900
aI23958
aI29470
aI30674
aI34478
aI39606
aI26713
aI22057
aI31086
aI34401
aI29077
aI35561
aI29193
aI21471
aI34390
aI28272
aI20561
aI30507
aI36548
aI33081
aI22183
aI24539
aI24488
aI19522
aI30117
aI35272
aI34559
aI20711
aI34079
aI29078
aI35983
aI28578
aI34161
aI25140
aI23838
aI29174
aI28021
aI37788
aI26819
aI28791
aI28177
aI37760
aI41640
aI21355
aI24042
aI25886
aI30602
aI39758
aI26167
aI34804
aI19447
aI18985
aI27158
aI22858
aI32838
aI32852
aI41587
aI23655
aI25048
aI31291
aI18930
aI43636
aI33299
aI16986
aI26972
aI22801
aI31726
aI49664
aI26536
aI27135
aI28999
aI40275
aI36024
aI30758
aI21449
aI38454
aI18049
aI30244
aI22543
aI16277
aI30363
aI30388
aI39788
aI28542
aI19605
aI26820
aI25747
aI22545
aI35669
aI24889
aI31004
aI18130
aI30794
aI37468
aI27794
aI18266
aI22155
aI36384
aI17725
aI21087
aI27950
aI37516
aI28219
aI22990
aI28390
aI26466
aI28078
aI30675
aI40680
aI20282
aI29352
aI18848
aI34408
aI33933
aI29132
aI34278
aI28527
aI18350
aI18738
aI26834
aI30818
aI29907
aI23281
aI34245
aI33118
aI25180
aI35477
aI16552
aI34233
aI29820
aI33456
aI28471
aI20577
aI37537
aI25454
aI26399
aI21706
aI27025
aI20584
aI31510
aI32827
aI31397
aI27619
aI26900
aI29989
aI22742
aI27787
aI33501
aI33447
aI31542
aI33851
aI22709
aI23719
aI27156
aI39182
aI25827
aI29731
aI35295
aI39045
aI27874
aI25939
aI20664
aI28291
aI29966
aI36062
aI17461
aI27748
aI25876
aI14461
aI30706
aI29864
aI33043
aI30094
aI34405
aI26760
aI20141
aI24172
aI25667
aI23971
aI40670
aI32774
aI29980
aI28172
aI42361
aI28439
aI29065
aI27570
aI29842
aI40018
aI33070
aI17829
aI25490
aI18679
aI26775
aI30089
aI29280
aI24358
aI34163
aI37096
aI28865
aI24310
aI30183
aI35446
aI27651
aI31250
aI35055
aI22140
aI42603
aI27309
aI34772
aI25645
aI28691
aI27938
aI45681
aI30369
aI21278
aI20936
aI19393
aI25904
aI37078
aI15437
aI29950
aI21776
aI29323
aI32581
aI29273
aI27235
aI42197
aI22108
aI50260
aI31670
aI21715
aI33960
aI26877
aI33463
aI35683
aI19921
aI28264
aI37444
aI27561
aI31732
aI17046
aI32210
aI34328
aI20943
aI37181
aI26704
aI33692
aI40133
aI29110
aI30594
aI42813
aI40414
aI37142
aI38323
aI40624
aI26041
aI23437
aI17864
aI24300
aI26728
aI35274
aI24642
aI24571
aI35539
aI28066
aI33013
aI27930
aI30086
aI37910
aI27324
aI38352
aI32329
aI25209
aI20674
aI31852
aI37423
aI32574
aI28777
aI13695
aI23467
aI17388
aI20825
aI39233
aI22416
aI24789
aI19059
aI41336
aI35157
aI17278
aI19092
aI22629
aI20356
aI21732
aI26372
aI30609
aI27383
aI34711
aI18696
aI34500
aI18145
aI28797
aI22225
aI23847
aI26077
aI40397
aI23244
aI35459
aI24886
aI25975
aI38585
aI19005
aI31479
aI45382
aI25616
aI30517
aI15280
aI37573
aI28562
aI25418
aI18145
aI20847
aI43257
aI20615
aI41960
aI21791
aI24329
aI22998
aI29327
aI28174
aI27125
aI35624
aI15208
aI20884
aI26647
aI36361
aI32233
aI50285
aI23113
aI45476
aI17371
aI40123
aI26538
aI27144
aI27906
aI39281
aI17165
aI24501
aI31072
aI31633
aI36858
aI35760
aI29569
aI19985
aI30466
aI19271
aI41354
aI29203
aI19593
aI34930
aI21697
aI22375
aI22937
aI31824
aI22388
aI26250
aI23602
aI23693
aI17260
aI33997
aI30250
aI20773
aI34716
aI31388
aI22868
aI32136
aI18466
aI27577
aI28438
aI32129
aI25207
aI29527
aI28213
aI39155
aI34428
aI18768
aI38087
aI32397
aI33872
aI21374
aI25928
aI33310
aI22208
aI29811
aI40306
aI45923
aI28606
aI29961
aI37305
aI23925
aI13073
aI25373
aI22164
aI35855
aI29543
aI41264
aI27507
aI18067
aI32217
aI24687
aI30967
aI26929
aI36462
aI33976
aI39448
aI41476
aI36603
aI23556
aI37619
aI32799
aI27733
aI22195
aI24170
aI26733
aI18956
aI17849
aI23180
aI21840
aI36117
aI27548
aI38757
aI17844
aI29564
aI26506
aI28732
aI25437
aI25806
aI30791
aI39223
aI30220
aI49033
aI32925
aI40846
aI30401
aI28893
aI34515
aI23354
aI22809
aI27822
aI43568
aI34853
aI26786
aI30184
aI22179
aI31254
aI29066
aI33362
aI26143
aI30434
aI20647
aI43369
aI21354
aI21289
aI38324
aI38637
aI28521
aI43916
aI37869
aI33208
aI44410
aI28986
aI23050
aI23969
aI19271
aI15771
aI28277
aI33554
aI27472
aI20748
aI35218
aI34884
aI29352
aI37883
aI20107
aI27962
aI31103
aI28373
aI31325
aI34825
aI28780
aI20263
aI35859
aI21039
aI22033
aI22728
aI39143
aI33213
aI36065
aI21869
aI28213
aI23384
aI19716
aI40370
aI24395
aI37484
aI31515
aI30225
aI35345
aI13413
aI22933
aI32015
aI19947
aI40209
aI21749
aI18213
aI20938
aI28612
aI32813
aI30635
aI37996
aI37182
aI26357
aI39410
aI28213
aI36597
aI20589
aI25001
aI45277
aI40877
aI31265
aI29436
aI26673
aI26865
aI22406
aI36243
aI23446
aI21980
aI26754
aI17958
aI52669
aI34591
aI24825
aI31932
aI23883
aI31437
aI34038
aI23977
aI28421
aI29726
aI31502
aI27256
aI27576
aI39695
aI28524
aI16508
aI53787
aI42767
aI28743
aI27005
aI17307
aI29900
aI24855
aI28660
aI33118
aI33429
aI39389
aI21658
aI23088
aI38778
aI24209
aI40269
aI43767
aI25089
aI45906
aI18827
aI26614
aI18429
aI29034
aI31175
aI28508
aI35089
aI35160
aI35998
aI25932
aI34541
aI27280
aI22890
aI33057
aI26574
aI23671
aI21641
aI19843
aI21967
aI41719
aI23388
aI23236
aI33972
aI28845
aI21666
aI25675
aI43499
aI34892
aI28423
aI41118
aI29861
aI39794
aI21786
aI33332
aI14819
aI29223
aI20201
aI32880
aI31232
aI28361
aI25236
aI42979
aI34035
aI13985
aI36998
aI23496
aI37068
aI36703
aI27723
aI23896
aI23858
aI35079
aI34422
aI37802
aI39256
aI28949
aI34610
aI35673
aI16179
aI33921
aI30004
aI41095
aI24090
aI35170
aI35993
aI40216
aI21251
aI22816
aI43877
aI32796
aI31430
aI25266
aI40767
aI32656
aI27257
aI22701
aI17687
aI24117
aI18913
aI30050
aI22986
aI18162
aI29456
aI34433
aI18916
aI23756
aI39725
aI35402
aI25453
aI27672
aI15160
aI32618
aI17129
aI41856
aI37698
aI26144
aI35546
aI40768
aI18630
aI34756
aI31249
aI23268
aI33445
aI36526
aI23634
aI32865
aI15877
aI24839
aI29898
aI25971
aI31202
aI22979
aI37326
aI22714
aI28019
aI30244
aI32192
aI40472
aI41250
aI25428
aI36525
aI27379
aI33671
aI34597
aI26269
aI36142
aI25662
aI33125
aI30536
aI19508
aI28088
aI24775
aI32084
aI26966
aI32217
aI32353
aI22898
aI35245
aI37094
aI32953
aI27410
aI22988
aI37358
aI19539
aI41978
aI55461
aI24211
aI25050
aI26188
aI32811
aI27872
aI26575
aI34602
aI26633
aI26746
aI41291
aI26816
aI27864
aI20797
aI34025
aI27051
aI27231
aI29314
aI32292
aI22954
aI35595
aI24795
aI38153
aI42121
aI38574
aI36895
aI26594
aI34619
aI27021
aI30594
aI24487
aI23964
aI23116
aI40196
aI19288
aI45922
aI19080
aI18960
aI26465
aI28844
aI29464
aI18255
aI36691
aI18844
aI36456
aI26942
aI30932
aI44143
aI31396
aI20612
aI29139
aI21396
aI28571
aI37284
aI31483
aI27499
aI25773
aI29651
aI31663
aI16079
aI31982
aI23787
aI35971
aI20227
aI34389
aI24330
aI23680
aI34184
aI31964
aI38388
aI18451
aI24881
aI19036
aI40613
aI35523
aI45078
aI34133
aI25551
aI16902
aI27413
aI29576
aI28708
aI33475
aI23186
aI19215
aI40701
aI28351
aI29924
aI28854
aI36515
aI22613
aI28330
aI26197
aI33660
aI41842
aI24578
aI29027
aI20788
aI44670
aI37565
aI24378
aI23831
aI18351
aI21104
aI24966
aI35516
aI30032
aI32946
aI34180
aI26495
aI14679
aI33792
aI29416
aI47047
aI29847
aI30599
aI40462
aI19530
aI34506
aI27836
asI13
(lp14
I3981
aI10582
aI8617
aI4561
aI14487
aI5440
aI7966
aI11397
aI5683
aI10114
aI7650
aI11399
aI10895
aI5153
aI4711
aI4747
aI6843
aI13016
aI8292
aI10614
aI6680
aI7972
aI9546
aI6739
aI9479
aI8523
aI10053
aI4546
aI5182
aI3415
aI11053
aI8877
aI8100
aI11452
aI13751
aI9352
aI5114
aI8779
aI12160
aI9428
aI8405
aI3649
aI9769
aI9022
aI6650
aI4017
aI8561
aI4338
aI8359
aI8456
aI5903
aI9990
aI16337
aI9284
aI5821
aI8233
aI6465
aI18059
aI6276
aI4633
aI5383
aI9775
aI6853
aI10821
aI8016
aI9487
aI3996
aI10039
aI8200
aI3078
aI3917
aI9212
aI4683
aI6264
aI4499
aI6637
aI9050
aI8228
aI6107
aI14789
aI6083
aI4961
aI10446
aI11613
aI3143
aI7003
aI6450
aI10224
aI11523
aI7376
aI8829
aI8142
aI14363
aI12935
aI3613
aI8328
aI7785
aI3306
aI13525
aI14153
aI8751
aI10999
aI7254
aI8253
aI3039
aI11177
aI7929
aI10487
aI10011
aI6734
aI3370
aI4299
aI5559
aI7360
aI11732
aI5525
aI10649
aI5377
aI10287
aI7306
aI9252
aI7436
aI7709
aI9131
aI12026
aI10592
aI5632
aI7817
aI5154
aI11137
aI8738
aI10214
aI8184
aI6659
aI13316
aI9073
aI6569
aI9707
aI6809
aI5003
aI10794
aI8521
aI8264
aI7322
aI13914
aI5489
aI11136
aI13565
aI8436
aI9004
aI8732
aI10146
aI9531
aI14742
aI8873
aI8487
aI10605
aI4415
aI11401
aI11218
aI6200
aI9377
aI3274
aI8304
aI3762
aI4783
aI11545
aI6368
aI4321
aI8569
aI5562
aI9381
aI6496
aI8476
aI6947
aI8789
aI11476
aI7209
aI6806
aI7458
aI5699
aI7795
aI7662
aI9453
aI15576
aI8372
aI7590
aI10061
aI10147
aI9555
aI12963
aI6475
aI8230
aI12707
aI5055
aI7297
aI10857
aI7055
aI11459
aI8222
aI5176
aI8463
aI5761
aI11164
aI1857
aI10510
aI7181
aI7010
aI6326
aI11850
aI3647
aI8963
aI8813
aI5693
aI7882
aI9903
aI10055
aI11988
aI6450
aI4944
aI9748
aI10178
aI7062
aI10845
aI9691
aI5832
aI9867
aI6418
aI4616
aI9051
aI12456
aI9028
aI5131
aI5585
aI7552
aI5872
aI8131
aI9532
aI9523
aI4605
aI9689
aI8129
aI10824
aI8132
aI9429
aI7361
aI5559
aI8864
aI7878
aI12168
aI6297
aI7811
aI7836
aI13242
aI11385
aI4731
aI7068
aI7228
aI8176
aI12885
aI7385
aI11242
aI4199
aI4170
aI6504
aI6105
aI9459
aI8869
aI13525
aI5429
aI6864
aI8779
aI4036
aI13554
aI9714
aI3667
aI6440
aI5265
aI9172
aI15969
aI7274
aI9520
aI9144
aI13634
aI9767
aI8354
aI4915
aI11909
aI3824
aI8156
aI6777
aI3418
aI9774
aI8188
aI12520
aI8079
aI4354
aI7900
aI5986
aI5002
aI11438
aI5858
aI7376
aI3875
aI9004
aI11296
aI9187
aI3996
aI5125
aI11113
aI3928
aI4705
aI6737
aI10284
aI7948
aI6660
aI8491
aI6209
aI7594
aI8438
aI12201
aI4585
aI8465
aI4144
aI10367
aI9807
aI8243
aI11145
aI8372
aI4051
aI4053
aI7218
aI8109
aI9685
aI7132
aI10866
aI9202
aI5880
aI11532
aI3567
aI11304
aI7196
aI9030
aI8790
aI4552
aI11813
aI6875
aI7876
aI5014
aI7961
aI4716
aI8600
aI9145
aI9014
aI7594
aI7405
aI7288
aI5220
aI7786
aI9989
aI10872
aI8800
aI10778
aI6201
aI5487
aI8020
aI12161
aI7833
aI7120
aI11726
aI11803
aI6606
aI7134
aI4493
aI9166
aI8057
aI11005
aI3702
aI8166
aI6047
aI2817
aI8438
aI8114
aI10964
aI9419
aI10852
aI7243
aI4445
aI6494
aI6981
aI5389
aI13677
aI10467
aI8666
aI6745
aI13290
aI7918
aI8606
aI7436
aI8951
aI11811
aI10519
aI3826
aI7660
aI5040
aI8021
aI8192
aI6957
aI7290
aI10362
aI10344
aI8248
aI5530
aI8168
aI9548
aI7523
aI9390
aI9329
aI5764
aI14149
aI8035
aI10530
aI5872
aI6933
aI7476
aI15288
aI8311
aI4959
aI5662
aI4098
aI7293
aI10955
aI3179
aI8038
aI4947
aI8648
aI10137
aI8373
aI6489
aI14345
aI4948
aI16468
aI8631
aI4988
aI10501
aI8001
aI9042
aI11388
aI4272
aI8432
aI10458
aI7431
aI8898
aI3645
aI10162
aI9450
aI4602
aI10633
aI7181
aI8238
aI12976
aI7843
aI8189
aI13057
aI13746
aI10964
aI10487
aI12510
aI7733
aI5357
aI3817
aI5666
aI6311
aI10789
aI5865
aI6593
aI9816
aI7640
aI9237
aI6698
aI9438
aI12000
aI8107
aI10435
aI7951
aI6709
aI4543
aI10150
aI11265
aI8885
aI7658
aI2807
aI5535
aI3606
aI4627
aI12440
aI5292
aI7100
aI4269
aI12841
aI11199
aI3553
aI4193
aI6161
aI4512
aI4875
aI6123
aI10256
aI7434
aI10607
aI4174
aI10323
aI4014
aI7876
aI5103
aI5294
aI7134
aI11967
aI5293
aI10878
aI6720
aI7745
aI11699
aI4171
aI8321
aI14537
aI5888
aI9072
aI3052
aI12130
aI7912
aI5766
aI5201
aI4653
aI13790
aI4507
aI14162
aI4726
aI5740
aI5307
aI8106
aI7582
aI7419
aI11230
aI3195
aI4755
aI7767
aI9836
aI10286
aI16729
aI5288
aI13234
aI3737
aI12608
aI7085
aI7306
aI8393
aI12753
aI3652
aI5703
aI8496
aI8583
aI12856
aI10444
aI7140
aI4449
aI8182
aI4366
aI14926
aI8087
aI4232
aI10803
aI4986
aI5107
aI5156
aI9726
aI6671
aI6127
aI6462
aI6393
aI3673
aI11844
aI8106
aI4659
aI10608
aI8863
aI6028
aI9298
aI3940
aI7499
aI8051
aI9892
aI5735
aI8290
aI6812
aI12276
aI11210
aI4119
aI12989
aI10255
aI9323
aI4680
aI7672
aI9716
aI5144
aI8429
aI12246
aI14749
aI7755
aI8932
aI11322
aI5467
aI2577
aI6804
aI4968
aI10869
aI8337
aI13798
aI8099
aI3905
aI9441
aI5618
aI8653
aI7259
aI10588
aI10894
aI11727
aI13410
aI11146
aI5385
aI11740
aI8942
aI7482
aI5039
aI5676
aI7366
aI4122
aI3688
aI6707
aI4909
aI9654
aI7331
aI12167
aI3804
aI8774
aI6189
aI8371
aI7115
aI7213
aI7506
aI10929
aI7212
aI15710
aI9607
aI11949
aI8328
aI7735
aI10042
aI5376
aI6795
aI7779
aI14109
aI10364
aI6361
aI9004
aI4987
aI8548
aI7089
aI10402
aI7387
aI7161
aI4669
aI13962
aI4754
aI5813
aI11819
aI12783
aI7728
aI11888
aI10509
aI11941
aI13876
aI9487
aI5263
aI6997
aI4146
aI3227
aI7437
aI9127
aI7897
aI4669
aI10700
aI10716
aI7823
aI11013
aI4442
aI6706
aI9787
aI6689
aI10145
aI9369
aI8477
aI4506
aI11361
aI4857
aI4953
aI5113
aI10903
aI10423
aI11473
aI5947
aI7602
aI6340
aI4300
aI11296
aI5528
aI10545
aI8363
aI9142
aI11576
aI2677
aI5305
aI8721
aI4396
aI14066
aI5903
aI4039
aI5603
aI6830
aI9594
aI8778
aI11815
aI12141
aI7276
aI12863
aI7555
aI11501
aI4597
aI6622
aI15282
aI13287
aI11382
aI8625
aI6246
aI7443
aI6724
aI11664
aI5501
aI4991
aI7214
aI3732
aI18003
aI11207
aI6738
aI9394
aI5577
aI8423
aI10647
aI6306
aI8370
aI8665
aI8838
aI7352
aI6630
aI11845
aI9597
aI3464
aI16894
aI12916
aI7741
aI7227
aI3698
aI9813
aI6803
aI7893
aI10632
aI9846
aI12389
aI4822
aI5255
aI11788
aI6621
aI13758
aI14098
aI7033
aI15409
aI4016
aI7337
aI3947
aI7883
aI8885
aI7560
aI10471
aI9539
aI11877
aI6258
aI10342
aI9377
aI5214
aI10569
aI6217
aI6745
aI4779
aI5952
aI5231
aI13113
aI6923
aI5319
aI9274
aI8573
aI4755
aI7583
aI14044
aI9782
aI8379
aI13443
aI7290
aI12337
aI4932
aI9121
aI2995
aI7714
aI4496
aI9572
aI8955
aI8375
aI6907
aI12351
aI10374
aI2711
aI12880
aI5469
aI12624
aI10529
aI7805
aI5508
aI6425
aI11154
aI10114
aI11708
aI13352
aI7867
aI12102
aI12428
aI3405
aI9746
aI7188
aI12641
aI6382
aI10922
aI11097
aI12907
aI6415
aI6132
aI14395
aI9969
aI8872
aI5865
aI13088
aI9528
aI6418
aI5115
aI3866
aI5638
aI4050
aI8495
aI5302
aI3889
aI8180
aI11000
aI4093
aI5472
aI12323
aI9668
aI6899
aI6543
aI3101
aI8723
aI3654
aI15320
aI10708
aI6207
aI10802
aI12918
aI4072
aI10742
aI10024
aI6389
aI10698
aI9891
aI6312
aI10152
aI3420
aI6891
aI8374
aI6898
aI8612
aI6628
aI10616
aI5261
aI7689
aI8286
aI8711
aI11043
aI13073
aI6748
aI11093
aI7814
aI10798
aI11323
aI7405
aI11416
aI7578
aI11933
aI8608
aI4392
aI9217
aI7343
aI9632
aI7371
aI8866
aI8805
aI5246
aI10555
aI11449
aI10269
aI7516
aI6857
aI11393
aI4181
aI12777
aI19136
aI6498
aI5659
aI6968
aI9558
aI6441
aI7600
aI10760
aI7826
aI7089
aI13665
aI6284
aI7549
aI4813
aI10847
aI9260
aI8133
aI8655
aI8948
aI6147
aI11736
aI7341
aI12053
aI14080
aI11815
aI11290
aI8339
aI10400
aI7345
aI8460
aI6666
aI5620
aI5229
aI11853
aI4383
aI15109
aI4264
aI4214
aI7026
aI8171
aI8050
aI3974
aI11606
aI4077
aI10339
aI7994
aI8532
aI14722
aI9754
aI4648
aI9479
aI5744
aI8375
aI11843
aI8426
aI7379
aI6039
aI8030
aI9326
aI3320
aI8555
aI5423
aI9970
aI4430
aI10534
aI6522
aI6429
aI9310
aI10483
aI12531
aI4089
aI7172
aI4107
aI12056
aI11228
aI13548
aI10156
aI7575
aI3649
aI6335
aI8637
aI6859
aI10628
aI7034
aI4226
aI12528
aI7497
aI8146
aI8417
aI10017
aI6166
aI8487
aI5983
aI10557
aI12318
aI6820
aI9329
aI4524
aI14586
aI10244
aI7365
aI5552
aI3934
aI4915
aI6712
aI9435
aI8190
aI10037
aI9450
aI7458
aI3126
aI10733
aI7862
aI15565
aI8798
aI8779
aI11758
aI4343
aI11239
aI6392
asI14
(lp15
I763
aI2587
aI2033
aI989
aI3683
aI1194
aI1932
aI2797
aI1286
aI2441
aI1803
aI2751
aI2659
aI1083
aI1042
aI1020
aI1552
aI3188
aI1995
aI2643
aI1586
aI1860
aI2401
aI1530
aI2264
aI2045
aI2413
aI986
aI1112
aI646
aI2840
aI2143
aI1864
aI2863
aI3562
aI2265
aI1122
aI2129
aI3093
aI2360
aI1993
aI724
aI2438
aI2107
aI1525
aI830
aI1960
aI866
aI1910
aI2064
aI1319
aI2387
aI4139
aI2183
aI1287
aI1976
aI1418
aI4654
aI1382
aI989
aI1174
aI2412
aI1598
aI2581
aI1942
aI2332
aI826
aI2421
aI1852
aI577
aI779
aI2200
aI1012
aI1439
aI975
aI1549
aI2124
aI1857
aI1370
aI3738
aI1431
aI1065
aI2695
aI2871
aI645
aI1541
aI1516
aI2526
aI2755
aI1733
aI2099
aI1953
aI3687
aI3306
aI703
aI1958
aI1836
aI612
aI3461
aI3679
aI2135
aI2651
aI1701
aI1817
aI551
aI2586
aI1846
aI2591
aI2450
aI1524
aI643
aI858
aI1192
aI1719
aI2906
aI1169
aI2699
aI1247
aI2540
aI1669
aI2250
aI1721
aI1858
aI2188
aI3023
aI2686
aI1196
aI1800
aI1151
aI2760
aI2121
aI2425
aI1997
aI1504
aI3375
aI2149
aI1487
aI2264
aI1541
aI1067
aI2555
aI1978
aI1991
aI1726
aI3505
aI1189
aI2745
aI3373
aI1971
aI2158
aI2102
aI2532
aI2257
aI3789
aI2121
aI1986
aI2592
aI912
aI2884
aI2648
aI1337
aI2288
aI631
aI2007
aI742
aI1054
aI2762
aI1410
aI834
aI2126
aI1259
aI2113
aI1558
aI1992
aI1639
aI2103
aI2782
aI1705
aI1605
aI1675
aI1201
aI1887
aI1780
aI2292
aI3970
aI1963
aI1724
aI2499
aI2505
aI2270
aI3283
aI1559
aI1999
aI3193
aI1039
aI1769
aI2819
aI1624
aI2855
aI1964
aI1165
aI2004
aI1246
aI2736
aI240
aI2604
aI1713
aI1623
aI1392
aI3017
aI679
aI2111
aI2128
aI1225
aI1842
aI2382
aI2381
aI3007
aI1459
aI1041
aI2234
aI2480
aI1569
aI2600
aI2440
aI1268
aI2386
aI1437
aI930
aI2237
aI3069
aI2144
aI1110
aI1205
aI1732
aI1363
aI1896
aI2343
aI2237
aI960
aI2284
aI1903
aI2706
aI1888
aI2252
aI1779
aI1203
aI2128
aI1852
aI3041
aI1394
aI1824
aI1839
aI3281
aI2661
aI997
aI1676
aI1673
aI1958
aI3145
aI1674
aI2736
aI862
aI911
aI1414
aI1391
aI2305
aI2068
aI3343
aI1187
aI1647
aI2042
aI795
aI3441
aI2302
aI737
aI1431
aI1021
aI2115
aI4065
aI1712
aI2269
aI2259
aI3427
aI2351
aI2001
aI1043
aI2961
aI764
aI1940
aI1646
aI666
aI2439
aI1947
aI3135
aI1855
aI916
aI1893
aI1382
aI1087
aI2854
aI1271
aI1703
aI801
aI2152
aI2717
aI2259
aI803
aI1064
aI2726
aI756
aI937
aI1528
aI2475
aI1897
aI1516
aI1973
aI1404
aI1803
aI1971
aI3066
aI980
aI2031
aI820
aI2597
aI2405
aI1921
aI2867
aI2033
aI819
aI834
aI1626
aI1916
aI2402
aI1637
aI2617
aI2172
aI1259
aI2786
aI686
aI2727
aI1605
aI2120
aI2166
aI962
aI2887
aI1598
aI1826
aI1039
aI1878
aI977
aI2090
aI2074
aI2061
aI1781
aI1695
aI1721
aI1084
aI1843
aI2386
aI2714
aI2048
aI2724
aI1429
aI1190
aI1922
aI3010
aI1843
aI1623
aI2797
aI2998
aI1511
aI1696
aI901
aI2250
aI1848
aI2672
aI723
aI1989
aI1334
aI505
aI2017
aI1903
aI2646
aI2271
aI2707
aI1635
aI872
aI1549
aI1548
aI1111
aI3430
aI2547
aI2160
aI1471
aI3381
aI1844
aI2034
aI1717
aI2114
aI2850
aI2562
aI787
aI1847
aI1126
aI1841
aI1966
aI1529
aI1675
aI2617
aI2565
aI1927
aI1218
aI1923
aI2328
aI1774
aI2323
aI2299
aI1363
aI3632
aI1820
aI2584
aI1302
aI1513
aI1765
aI3821
aI1954
aI1041
aI1299
aI766
aI1674
aI2699
aI598
aI1920
aI1088
aI2041
aI2353
aI1939
aI1478
aI3633
aI1059
aI4182
aI2036
aI1117
aI2604
aI1959
aI2197
aI2833
aI887
aI2028
aI2570
aI1753
aI2083
aI731
aI2550
aI2271
aI995
aI2532
aI1656
aI1918
aI3204
aI1843
aI1932
aI3130
aI3490
aI2615
aI2566
aI3057
aI1829
aI1123
aI779
aI1249
aI1382
aI2633
aI1294
aI1542
aI2345
aI1859
aI2203
aI1528
aI2291
aI2980
aI2031
aI2431
aI1768
aI1579
aI948
aI2481
aI2773
aI2178
aI1788
aI493
aI1191
aI715
aI925
aI3094
aI1124
aI1542
aI871
aI3314
aI2831
aI727
aI880
aI1401
aI981
aI1042
aI1293
aI2497
aI1754
aI2585
aI831
aI2614
aI736
aI1874
aI1090
aI1139
aI1678
aI2936
aI1198
aI2658
aI1545
aI1763
aI3028
aI848
aI1944
aI3786
aI1262
aI2216
aI560
aI3015
aI1873
aI1281
aI1186
aI1000
aI3438
aI960
aI3594
aI1059
aI1294
aI1140
aI1898
aI1777
aI1784
aI2759
aI582
aI1043
aI1887
aI2316
aI2506
aI4333
aI1168
aI3258
aI701
aI3223
aI1677
aI1661
aI1934
aI3168
aI730
aI1283
aI1974
aI1998
aI3269
aI2626
aI1588
aI939
aI2018
aI920
aI3993
aI1871
aI897
aI2610
aI1056
aI1051
aI1124
aI2298
aI1598
aI1373
aI1493
aI1439
aI716
aI2962
aI1920
aI968
aI2561
aI2158
aI1541
aI2235
aI794
aI1738
aI1890
aI2358
aI1247
aI1925
aI1535
aI3041
aI2751
aI822
aI3254
aI2604
aI2278
aI993
aI1818
aI2347
aI1081
aI1971
aI3009
aI3668
aI1856
aI2108
aI2756
aI1159
aI428
aI1573
aI1006
aI2621
aI1969
aI3321
aI1970
aI790
aI2191
aI1300
aI2000
aI1672
aI2569
aI2675
aI2854
aI3374
aI2719
aI1238
aI2861
aI2146
aI1765
aI1096
aI1251
aI1675
aI833
aI717
aI1508
aI1024
aI2400
aI1690
aI3003
aI753
aI2080
aI1379
aI1956
aI1681
aI1644
aI1690
aI2608
aI1671
aI3989
aI2304
aI2941
aI2026
aI1821
aI2470
aI1162
aI1590
aI1734
aI3681
aI2594
aI1487
aI2198
aI1097
aI2009
aI1599
aI2473
aI1712
aI1742
aI994
aI3597
aI979
aI1325
aI2914
aI3058
aI1832
aI2962
aI2505
aI3042
aI3428
aI2327
aI1142
aI1620
aI873
aI553
aI1760
aI2148
aI1832
aI973
aI2581
aI2668
aI1867
aI2706
aI957
aI1540
aI2298
aI1507
aI2497
aI2282
aI2018
aI929
aI2770
aI1052
aI1033
aI1126
aI2631
aI2651
aI2853
aI1373
aI1814
aI1434
aI842
aI2801
aI1204
aI2601
aI1956
aI2199
aI2840
aI468
aI1171
aI2073
aI883
aI3496
aI1344
aI821
aI1305
aI1547
aI2351
aI2030
aI2954
aI2938
aI1708
aI3168
aI1847
aI2844
aI928
aI1555
aI3835
aI3263
aI2874
aI2037
aI1383
aI1745
aI1561
aI2861
aI1214
aI1084
aI1641
aI765
aI4648
aI2727
aI1497
aI2256
aI1200
aI2045
aI2562
aI1499
aI1963
aI2026
aI2060
aI1714
aI1449
aI2998
aI2400
aI666
aI4300
aI3217
aI1813
aI1676
aI751
aI2358
aI1519
aI1858
aI2658
aI2391
aI3048
aI1036
aI1107
aI2901
aI1428
aI3376
aI3535
aI1599
aI3934
aI822
aI1709
aI760
aI1784
aI2088
aI1835
aI2458
aI2336
aI2841
aI1376
aI2504
aI2304
aI1112
aI2638
aI1346
aI1463
aI1005
aI1458
aI1155
aI3243
aI1644
aI1140
aI2267
aI2065
aI1038
aI1829
aI3607
aI2359
aI2002
aI3443
aI1627
aI3002
aI1104
aI2219
aI565
aI1897
aI938
aI2337
aI2182
aI1988
aI1637
aI3037
aI2538
aI471
aI3126
aI1174
aI3242
aI2622
aI1779
aI1232
aI1482
aI2839
aI2398
aI2998
aI3427
aI1903
aI2984
aI3219
aI669
aI2358
aI1615
aI3163
aI1425
aI2563
aI2679
aI3285
aI1478
aI1376
aI3607
aI2426
aI2073
aI1332
aI3263
aI2328
aI1446
aI1138
aI684
aI1248
aI814
aI2005
aI1143
aI785
aI1909
aI2715
aI840
aI1240
aI3201
aI2368
aI1619
aI1503
aI582
aI2097
aI740
aI3871
aI2611
aI1340
aI2632
aI3219
aI862
aI2654
aI2299
aI1456
aI2711
aI2368
aI1440
aI2458
aI709
aI1580
aI1938
aI1596
aI1983
aI1459
aI2530
aI1118
aI1867
aI1914
aI2035
aI2643
aI3378
aI1596
aI2750
aI1800
aI2602
aI2815
aI1761
aI2807
aI1819
aI2989
aI2063
aI890
aI2275
aI1724
aI2305
aI1690
aI2123
aI2110
aI1165
aI2623
aI2956
aI2453
aI1787
aI1622
aI2854
aI886
aI3228
aI4932
aI1508
aI1249
aI1629
aI2351
aI1492
aI1728
aI2563
aI1853
aI1667
aI3330
aI1396
aI1749
aI1083
aI2594
aI2317
aI1958
aI2017
aI2102
aI1382
aI2957
aI1759
aI3011
aI3566
aI2908
aI2728
aI2099
aI2521
aI1739
aI2038
aI1549
aI1198
aI1121
aI2933
aI892
aI3847
aI953
aI819
aI1689
aI1890
aI1911
aI785
aI2800
aI855
aI2435
aI1866
aI2037
aI3690
aI2358
aI1028
aI2321
aI1332
aI1996
aI2947
aI2018
aI1750
aI1339
aI1933
aI2215
aI637
aI2041
aI1147
aI2387
aI924
aI2543
aI1535
aI1498
aI2167
aI2612
aI3063
aI795
aI1669
aI861
aI3023
aI2794
aI3294
aI2449
aI1737
aI741
aI1374
aI2083
aI1505
aI2585
aI1597
aI849
aI3041
aI1799
aI1910
aI2027
aI2433
aI1392
aI2102
aI1270
aI2449
aI3042
aI1541
aI2287
aI917
aI3744
aI2555
aI1672
aI1165
aI828
aI1066
aI1531
aI2274
aI1917
aI2424
aI2284
aI1722
aI557
aI2604
aI1899
aI4067
aI2129
aI2093
aI2924
aI959
aI2720
aI1453
asI15
(lp16
I140
aI610
aI486
aI189
aI955
aI251
aI443
aI658
aI274
aI553
aI417
aI681
aI598
aI207
aI192
aI190
aI329
aI804
aI466
aI647
aI369
aI398
aI566
aI318
aI491
aI482
aI580
aI191
aI244
aI123
aI605
aI462
aI440
aI678
aI871
aI467
aI213
aI510
aI753
aI571
aI480
aI121
aI557
aI492
aI344
aI163
aI454
aI150
aI429
aI507
aI272
aI560
aI967
aI506
aI273
aI479
aI298
aI1244
aI293
aI179
aI261
aI576
aI365
aI657
aI446
aI568
aI144
aI545
aI424
aI81
aI132
aI515
aI190
aI285
aI175
aI335
aI518
aI432
aI336
aI883
aI318
aI203
aI639
aI677
aI113
aI369
aI323
aI580
aI646
aI380
aI459
aI425
aI909
aI782
aI135
aI434
aI398
aI127
aI800
aI811
aI511
aI613
aI357
aI437
aI74
aI609
aI432
aI624
aI561
aI342
aI118
aI167
aI272
aI376
aI709
aI249
aI651
aI232
aI628
aI393
aI534
aI405
aI408
aI487
aI808
aI623
aI248
aI420
aI203
aI654
aI494
aI550
aI463
aI336
aI864
aI556
aI354
aI531
aI338
aI217
aI587
aI479
aI477
aI396
aI864
aI243
aI618
aI845
aI420
aI512
aI491
aI601
aI549
aI944
aI487
aI449
aI629
aI174
aI722
aI689
aI295
aI545
aI110
aI480
aI112
aI209
aI643
aI314
aI166
aI491
aI268
aI533
aI349
aI478
aI361
aI486
aI678
aI377
aI364
aI365
aI257
aI421
aI410
aI528
aI970
aI445
aI407
aI600
aI575
aI486
aI768
aI317
aI441
aI758
aI198
aI405
aI700
aI335
aI672
aI442
aI267
aI431
aI266
aI635
aI17
aI585
aI394
aI381
aI283
aI687
aI115
aI450
aI504
aI246
aI466
aI577
aI577
aI716
aI301
aI215
aI534
aI592
aI343
aI631
aI573
aI305
aI505
aI330
aI191
aI546
aI801
aI511
aI241
aI249
aI391
aI303
aI428
aI551
aI540
aI193
aI539
aI431
aI610
aI409
aI519
aI404
aI244
aI482
aI390
aI704
aI282
aI433
aI390
aI833
aI664
aI187
aI363
aI353
aI471
aI761
aI386
aI638
aI145
aI180
aI315
aI319
aI537
aI510
aI799
aI257
aI382
aI469
aI176
aI868
aI565
aI128
aI309
aI218
aI547
aI1082
aI373
aI509
aI515
aI799
aI595
aI457
aI201
aI644
aI135
aI459
aI358
aI122
aI578
aI451
aI753
aI425
aI183
aI413
aI310
aI223
aI693
aI283
aI396
aI134
aI504
aI688
aI529
aI160
aI205
aI645
aI146
aI181
aI339
aI588
aI389
aI303
aI467
aI301
aI403
aI473
aI706
aI195
aI485
aI138
aI619
aI539
aI409
aI626
aI450
aI147
aI145
aI377
aI478
aI566
aI368
aI626
aI480
aI295
aI707
aI117
aI660
aI346
aI514
aI492
aI183
aI707
aI362
aI416
aI215
aI441
aI210
aI498
aI484
aI487
aI411
aI389
aI383
aI205
aI375
aI536
aI650
aI482
aI643
aI307
aI237
aI419
aI731
aI453
aI355
aI688
aI662
aI341
aI380
aI193
aI544
aI438
aI677
aI123
aI466
aI283
aI91
aI481
aI436
aI591
aI495
aI624
aI376
aI177
aI316
aI367
aI251
aI856
aI642
aI469
aI316
aI813
aI419
aI504
aI392
aI463
aI723
aI609
aI140
aI406
aI258
aI433
aI446
aI340
aI378
aI617
aI629
aI396
aI261
aI432
aI557
aI386
aI530
aI569
aI307
aI914
aI439
aI612
aI248
aI339
aI411
aI969
aI468
aI197
aI288
aI126
aI382
aI716
aI99
aI430
aI202
aI496
aI573
aI440
aI294
aI888
aI231
aI1061
aI482
aI200
aI576
aI448
aI533
aI691
aI198
aI440
aI589
aI418
aI447
aI146
aI542
aI537
aI227
aI573
aI380
aI436
aI763
aI445
aI455
aI776
aI850
aI685
aI575
aI721
aI430
aI232
aI136
aI253
aI293
aI621
aI274
aI332
aI569
aI396
aI490
aI315
aI510
aI719
aI432
aI591
aI434
aI366
aI171
aI570
aI693
aI466
aI424
aI76
aI231
aI127
aI182
aI737
aI216
aI341
aI174
aI766
aI644
aI126
aI145
aI309
aI170
aI198
aI320
aI543
aI388
aI610
aI158
aI653
aI155
aI445
aI226
aI251
aI360
aI728
aI290
aI642
aI340
aI424
aI697
aI160
aI454
aI918
aI269
aI478
aI117
aI733
aI417
aI276
aI240
aI176
aI812
aI189
aI894
aI197
aI260
aI218
aI442
aI406
aI396
aI669
aI89
aI207
aI427
aI570
aI604
aI1046
aI245
aI824
aI112
aI775
aI369
aI384
aI466
aI759
aI136
aI278
aI465
aI470
aI798
aI623
aI347
aI164
aI475
aI176
aI924
aI421
aI146
aI597
aI190
aI211
aI220
aI597
aI343
aI287
aI346
aI344
aI124
aI767
aI450
aI184
aI620
aI469
aI271
aI522
aI136
aI409
aI391
aI564
aI297
aI426
aI320
aI763
aI644
aI130
aI847
aI616
aI542
aI176
aI396
aI563
aI224
aI475
aI738
aI975
aI414
aI507
aI675
aI243
aI58
aI360
aI227
aI630
aI402
aI845
aI471
aI154
aI492
aI260
aI456
aI372
aI598
aI631
aI764
aI789
aI654
aI235
aI709
aI524
aI410
aI204
aI260
aI388
aI141
aI135
aI332
aI212
aI590
aI422
aI744
aI140
aI503
aI298
aI462
aI313
aI381
aI393
aI617
aI383
aI1041
aI550
aI718
aI462
aI431
aI590
aI224
aI363
aI374
aI868
aI601
aI294
aI539
aI207
aI442
aI371
aI589
aI362
aI404
aI187
aI910
aI218
aI296
aI663
aI814
aI418
aI818
aI657
aI700
aI869
aI546
aI236
aI349
aI167
aI106
aI399
aI508
aI378
aI204
aI605
aI651
aI429
aI670
aI193
aI324
aI542
aI339
aI628
aI526
aI458
aI186
aI687
aI215
aI185
aI212
aI614
aI644
aI710
aI305
aI422
aI312
aI172
aI687
aI258
aI609
aI475
aI558
aI667
aI78
aI229
aI490
aI207
aI844
aI295
aI148
aI283
aI356
aI551
aI470
aI722
aI684
aI375
aI740
aI410
aI687
aI169
aI355
aI960
aI766
aI649
aI471
aI312
aI380
aI347
aI705
aI251
aI207
aI376
aI136
aI1123
aI649
aI367
aI528
aI217
aI486
aI603
aI358
aI467
aI447
aI443
aI391
aI311
aI704
aI529
aI117
aI1049
aI747
aI413
aI371
aI123
aI536
aI355
aI417
aI629
aI550
aI753
aI184
aI213
aI684
aI329
aI793
aI902
aI354
aI941
aI134
aI367
aI139
aI427
aI475
aI436
aI639
aI544
aI658
aI309
aI618
aI532
aI223
aI630
aI296
aI344
aI222
aI286
aI214
aI766
aI359
aI237
aI556
aI498
aI195
aI385
aI886
aI508
aI456
aI837
aI347
aI716
aI225
aI524
aI93
aI446
aI166
aI553
aI509
aI443
aI365
aI750
aI586
aI83
aI743
aI222
aI841
aI629
aI402
aI222
aI359
aI689
aI572
aI740
aI823
aI425
aI715
aI808
aI112
aI547
aI348
aI788
aI318
aI609
aI630
aI766
aI330
aI322
aI839
aI562
aI475
aI291
aI760
aI534
aI304
aI212
aI131
aI267
aI161
aI456
aI212
aI164
aI444
aI671
aI183
aI271
aI759
aI543
aI356
aI305
aI92
aI497
aI137
aI959
aI605
aI299
aI617
aI783
aI155
aI661
aI564
aI336
aI641
aI557
aI332
aI592
aI101
aI341
aI436
aI354
aI472
aI328
aI566
aI236
aI411
aI469
aI471
aI654
aI787
aI350
aI644
aI377
aI658
aI639
aI396
aI687
aI385
aI689
aI435
aI172
aI536
aI399
aI584
aI384
aI489
aI471
aI226
aI624
aI696
aI589
aI400
aI332
aI645
aI154
aI744
aI1193
aI346
aI262
aI343
aI542
aI314
aI383
aI594
aI431
aI397
aI823
aI276
aI389
aI193
aI687
aI497
aI455
aI459
aI483
aI338
aI640
aI402
aI725
aI875
aI688
aI671
aI452
aI638
aI391
aI469
aI346
aI254
aI245
aI702
aI168
aI946
aI172
aI177
aI364
aI388
aI439
aI152
aI695
aI146
aI534
aI404
aI438
aI933
aI538
aI181
aI581
aI282
aI471
aI744
aI477
aI368
aI268
aI430
aI547
aI106
aI480
aI220
aI551
aI183
aI585
aI351
aI310
aI510
aI602
aI733
aI152
aI361
aI153
aI765
aI673
aI783
aI629
aI399
aI130
aI324
aI487
aI289
aI660
aI385
aI172
aI730
aI402
aI463
aI468
aI570
aI303
aI534
aI270
aI570
aI757
aI325
aI563
aI181
aI944
aI599
aI386
aI254
aI151
aI204
aI345
aI521
aI465
aI577
aI546
aI381
aI117
aI655
aI449
aI939
aI447
aI424
aI671
aI177
aI658
aI328
asI16
(lp17
I18
aI149
aI100
aI30
aI218
aI36
aI93
aI158
aI49
aI130
aI80
aI148
aI144
aI30
aI37
aI37
aI65
aI194
aI100
aI140
aI72
aI69
aI99
aI69
aI120
aI107
aI146
aI30
aI39
aI12
aI153
aI112
aI91
aI141
aI226
aI114
aI40
aI127
aI172
aI112
aI84
aI17
aI140
aI110
aI65
aI33
aI100
aI28
aI104
aI114
aI67
aI119
aI221
aI125
aI54
aI102
aI70
aI280
aI76
aI34
aI50
aI120
aI76
aI141
aI100
aI109
aI18
aI132
aI86
aI7
aI22
aI110
aI31
aI56
aI24
aI65
aI113
aI93
aI56
aI229
aI56
aI42
aI136
aI170
aI15
aI79
aI70
aI122
aI151
aI89
aI111
aI97
aI219
aI222
aI16
aI95
aI96
aI16
aI192
aI169
aI109
aI160
aI77
aI92
aI15
aI144
aI88
aI142
aI116
aI71
aI22
aI21
aI54
aI80
aI158
aI46
aI131
aI45
aI134
aI75
aI114
aI84
aI85
aI107
aI169
aI154
aI44
aI85
aI31
aI154
aI106
aI134
aI100
aI78
aI195
aI113
aI68
aI136
aI66
aI43
aI135
aI108
aI113
aI75
aI204
aI63
aI149
aI184
aI92
aI110
aI112
aI140
aI116
aI195
aI105
aI89
aI148
aI38
aI187
aI124
aI58
aI122
aI5
aI105
aI18
aI35
aI145
aI68
aI21
aI126
aI50
aI123
aI63
aI109
aI68
aI103
aI147
aI80
aI76
aI91
aI44
aI89
aI86
aI111
aI227
aI95
aI81
aI128
aI133
aI114
aI190
aI66
aI110
aI177
aI28
aI84
aI154
aI82
aI153
aI98
aI45
aI95
aI58
aI149
aI0
aI120
aI81
aI70
aI65
aI167
aI24
aI99
aI96
aI56
aI96
aI125
aI115
aI161
aI63
aI33
aI131
aI109
aI81
aI136
aI122
aI52
aI110
aI75
aI31
aI103
aI153
aI118
aI52
aI50
aI80
aI58
aI87
aI123
aI123
aI27
aI121
aI87
aI120
aI90
aI116
aI61
aI38
aI101
aI90
aI149
aI65
aI90
aI87
aI179
aI160
aI30
aI80
aI68
aI96
aI191
aI72
aI155
aI19
aI26
aI62
aI61
aI119
aI111
aI203
aI37
aI71
aI100
aI18
aI202
aI132
aI19
aI59
aI54
aI112
aI250
aI86
aI107
aI107
aI194
aI140
aI99
aI41
aI142
aI19
aI80
aI70
aI21
aI129
aI104
aI165
aI81
aI25
aI85
aI69
aI44
aI148
aI58
aI81
aI23
aI108
aI152
aI102
aI16
aI32
aI145
aI23
aI36
aI71
aI141
aI89
aI52
aI102
aI54
aI84
aI112
aI157
aI36
aI92
aI21
aI132
aI125
aI91
aI138
aI92
aI21
aI25
aI88
aI95
aI128
aI62
aI140
aI113
aI64
aI139
aI12
aI137
aI83
aI99
aI102
aI32
aI165
aI79
aI81
aI32
aI89
aI34
aI106
aI113
aI114
aI90
aI95
aI86
aI44
aI72
aI123
aI135
aI105
aI133
aI67
aI42
aI85
aI176
aI102
aI78
aI157
aI170
aI72
aI87
aI35
aI98
aI91
aI128
aI18
aI85
aI46
aI4
aI109
aI93
aI126
aI115
aI134
aI88
aI28
aI51
aI69
aI44
aI183
aI135
aI113
aI81
aI199
aI82
aI92
aI83
aI92
aI178
aI151
aI22
aI88
aI45
aI80
aI96
aI82
aI74
aI117
aI137
aI93
aI54
aI95
aI131
aI90
aI123
aI133
aI53
aI211
aI84
aI130
aI52
aI68
aI87
aI214
aI101
aI45
aI62
aI18
aI83
aI143
aI14
aI93
aI37
aI99
aI135
aI87
aI61
aI192
aI37
aI261
aI99
aI36
aI138
aI92
aI113
aI144
aI30
aI93
aI130
aI92
aI100
aI10
aI112
aI126
aI34
aI135
aI75
aI102
aI150
aI95
aI102
aI211
aI176
aI149
aI141
aI162
aI72
aI44
aI20
aI47
aI58
aI149
aI61
aI67
aI145
aI92
aI113
aI67
aI101
aI165
aI96
aI133
aI98
aI70
aI31
aI134
aI156
aI108
aI80
aI6
aI45
aI19
aI26
aI188
aI43
aI80
aI33
aI197
aI140
aI13
aI26
aI63
aI23
aI50
aI66
aI122
aI94
aI136
aI21
aI133
aI24
aI88
aI19
aI54
aI87
aI150
aI62
aI139
aI73
aI74
aI151
aI23
aI108
aI225
aI54
aI106
aI9
aI146
aI96
aI56
aI53
aI31
aI200
aI28
aI201
aI42
aI56
aI45
aI87
aI85
aI85
aI139
aI12
aI37
aI73
aI138
aI145
aI261
aI45
aI191
aI8
aI182
aI79
aI73
aI95
aI174
aI20
aI52
aI103
aI105
aI192
aI152
aI85
aI22
aI106
aI33
aI225
aI91
aI28
aI151
aI32
aI36
aI43
aI120
aI67
aI66
aI68
aI67
aI8
aI138
aI96
aI34
aI134
aI103
aI65
aI104
aI19
aI74
aI92
aI124
aI65
aI92
aI88
aI160
aI131
aI19
aI166
aI134
aI123
aI32
aI76
aI123
aI46
aI93
aI150
aI210
aI83
aI103
aI153
aI47
aI4
aI65
aI43
aI134
aI97
aI189
aI91
aI30
aI113
aI54
aI91
aI77
aI137
aI138
aI152
aI195
aI132
aI49
aI166
aI103
aI90
aI40
aI41
aI64
aI21
aI9
aI72
aI33
aI130
aI80
aI147
aI13
aI97
aI60
aI92
aI88
aI75
aI76
aI147
aI89
aI224
aI115
aI178
aI97
aI95
aI134
aI47
aI74
aI73
aI210
aI148
aI53
aI107
aI42
aI122
aI61
aI137
aI72
aI95
aI29
aI174
aI29
aI55
aI171
aI152
aI97
aI208
aI132
aI152
aI198
aI130
aI41
aI72
aI25
aI10
aI87
aI117
aI91
aI33
aI142
aI141
aI86
aI137
aI31
aI66
aI121
aI69
aI114
aI117
aI108
aI24
aI163
aI40
aI40
aI23
aI148
aI138
aI168
aI56
aI85
aI63
aI28
aI166
aI49
aI146
aI97
aI118
aI150
aI11
aI47
aI107
aI13
aI175
aI58
aI26
aI61
aI74
aI109
aI97
aI150
aI129
aI82
aI175
aI87
aI151
aI29
aI68
aI208
aI178
aI164
aI102
aI63
aI84
aI80
aI150
aI56
aI39
aI86
aI15
aI279
aI143
aI60
aI119
aI49
aI120
aI115
aI52
aI96
aI108
aI105
aI83
aI54
aI155
aI112
aI15
aI274
aI183
aI88
aI83
aI13
aI131
aI69
aI90
aI141
aI130
aI176
aI42
aI35
aI149
aI77
aI183
aI187
aI71
aI226
aI21
aI82
aI21
aI91
aI104
aI86
aI154
aI124
aI137
aI64
aI122
aI104
aI43
aI138
aI52
aI58
aI23
aI62
aI38
aI174
aI89
aI53
aI121
aI102
aI25
aI89
aI192
aI127
aI91
aI191
aI81
aI176
aI35
aI116
aI11
aI87
aI33
aI124
aI115
aI94
aI71
aI176
aI127
aI5
aI162
aI53
aI165
aI145
aI74
aI46
aI62
aI149
aI129
aI155
aI184
aI91
aI169
aI172
aI18
aI116
aI78
aI188
aI68
aI155
aI141
aI176
aI57
aI57
aI216
aI123
aI105
aI47
aI175
aI109
aI52
aI39
aI27
aI58
aI22
aI91
aI46
aI16
aI82
aI137
aI23
aI35
aI170
aI128
aI82
aI74
aI6
aI107
aI14
aI196
aI150
aI61
aI133
aI178
aI23
aI132
aI116
aI55
aI151
aI127
aI63
aI132
aI16
aI70
aI94
aI76
aI99
aI49
aI134
aI49
aI90
aI99
aI113
aI149
aI182
aI64
aI146
aI83
aI138
aI149
aI85
aI152
aI82
aI148
aI111
aI28
aI112
aI81
aI112
aI87
aI104
aI104
aI46
aI147
aI153
aI132
aI98
aI67
aI144
aI30
aI182
aI282
aI70
aI45
aI83
aI117
aI67
aI77
aI143
aI77
aI83
aI193
aI61
aI91
aI41
aI131
aI112
aI88
aI104
aI119
aI48
aI165
aI90
aI164
aI185
aI166
aI160
aI105
aI128
aI91
aI110
aI70
aI52
aI49
aI166
aI29
aI222
aI36
aI27
aI79
aI94
aI98
aI26
aI147
aI21
aI123
aI88
aI110
aI211
aI112
aI40
aI110
aI58
aI102
aI153
aI107
aI94
aI60
aI96
aI112
aI14
aI106
aI37
aI124
aI34
aI129
aI71
aI75
aI117
aI118
aI167
aI34
aI73
aI23
aI184
aI148
aI196
aI129
aI84
aI18
aI72
aI84
aI77
aI163
aI70
aI33
aI191
aI97
aI95
aI94
aI125
aI59
aI99
aI66
aI140
aI180
aI67
aI119
aI33
aI223
aI151
aI76
aI63
aI26
aI36
aI69
aI134
aI98
aI114
aI123
aI69
aI10
aI164
aI82
aI217
aI113
aI103
aI152
aI23
aI136
aI70
asI17
(lp18
I1
aI39
aI23
aI4
aI41
aI9
aI21
aI47
aI11
aI34
aI26
aI37
aI38
aI2
aI8
aI3
aI16
aI51
aI23
aI38
aI16
aI19
aI32
aI12
aI37
aI22
aI42
aI7
aI7
aI3
aI37
aI19
aI22
aI40
aI51
aI21
aI6
aI19
aI31
aI29
aI19
aI1
aI32
aI22
aI19
aI3
aI19
aI2
aI18
aI19
aI11
aI31
aI48
aI30
aI8
aI22
aI8
aI61
aI13
aI3
aI5
aI27
aI16
aI38
aI24
aI38
aI0
aI30
aI18
aI0
aI1
aI36
aI4
aI11
aI6
aI9
aI24
aI21
aI15
aI58
aI6
aI4
aI24
aI28
aI1
aI16
aI14
aI30
aI40
aI18
aI25
aI18
aI53
aI52
aI0
aI23
aI23
aI2
aI50
aI60
aI19
aI33
aI14
aI19
aI0
aI33
aI18
aI32
aI36
aI16
aI1
aI3
aI14
aI20
aI34
aI3
aI36
aI6
aI34
aI20
aI29
aI19
aI19
aI22
aI43
aI47
aI3
aI21
aI2
aI36
aI30
aI25
aI20
aI14
aI49
aI25
aI14
aI33
aI14
aI5
aI46
aI20
aI15
aI24
aI49
aI6
aI38
aI57
aI21
aI22
aI23
aI31
aI23
aI60
aI27
aI19
aI41
aI6
aI41
aI34
aI12
aI25
aI0
aI25
aI0
aI3
aI36
aI7
aI0
aI24
aI15
aI21
aI17
aI20
aI19
aI23
aI38
aI20
aI14
aI10
aI5
aI16
aI18
aI25
aI74
aI15
aI21
aI35
aI28
aI29
aI49
aI19
aI23
aI49
aI6
aI14
aI28
aI19
aI44
aI19
aI14
aI17
aI8
aI35
aI0
aI39
aI19
aI18
aI10
aI37
aI1
aI24
aI23
aI11
aI27
aI33
aI34
aI46
aI9
aI0
aI32
aI32
aI13
aI29
aI31
aI14
aI28
aI14
aI5
aI32
aI53
aI28
aI4
aI7
aI14
aI14
aI21
aI28
aI28
aI3
aI21
aI16
aI34
aI22
aI23
aI23
aI8
aI25
aI17
aI30
aI15
aI17
aI17
aI45
aI41
aI3
aI17
aI17
aI25
aI35
aI16
aI31
aI3
aI3
aI11
aI16
aI21
aI26
aI60
aI8
aI15
aI22
aI0
aI50
aI28
aI1
aI15
aI6
aI24
aI70
aI21
aI22
aI24
aI57
aI29
aI23
aI5
aI32
aI2
aI22
aI16
aI1
aI34
aI20
aI44
aI17
aI2
aI16
aI6
aI6
aI41
aI8
aI10
aI4
aI23
aI43
aI29
aI0
aI2
aI29
aI0
aI5
aI12
aI33
aI13
aI18
aI24
aI9
aI21
aI25
aI48
aI5
aI22
aI0
aI33
aI31
aI18
aI33
aI23
aI2
aI1
aI16
aI24
aI31
aI19
aI34
aI22
aI5
aI40
aI0
aI24
aI20
aI29
aI35
aI2
aI41
aI18
aI17
aI3
aI18
aI4
aI26
aI26
aI19
aI17
aI17
aI10
aI5
aI20
aI29
aI36
aI20
aI37
aI15
aI8
aI23
aI47
aI24
aI15
aI39
aI44
aI13
aI18
aI3
aI32
aI25
aI35
aI1
aI19
aI14
aI0
aI20
aI23
aI36
aI27
aI39
aI15
aI3
aI23
aI22
aI7
aI47
aI33
aI20
aI18
aI44
aI26
aI24
aI22
aI24
aI50
aI36
aI1
aI21
aI11
aI19
aI24
aI15
aI18
aI42
aI33
aI18
aI8
aI22
aI28
aI20
aI37
aI34
aI15
aI53
aI21
aI34
aI10
aI12
aI21
aI62
aI18
aI8
aI10
aI0
aI16
aI48
aI0
aI20
aI5
aI18
aI25
aI18
aI17
aI52
aI7
aI68
aI22
aI8
aI31
aI19
aI28
aI35
aI0
aI24
aI39
aI20
aI23
aI0
aI28
aI22
aI2
aI29
aI17
aI22
aI36
aI23
aI19
aI39
aI37
aI46
aI32
aI42
aI26
aI4
aI0
aI7
aI10
aI34
aI9
aI13
aI29
aI20
aI24
aI13
aI31
aI52
aI23
aI37
aI18
aI19
aI3
aI33
aI41
aI26
aI26
aI0
aI7
aI0
aI5
aI42
aI8
aI10
aI4
aI50
aI37
aI0
aI3
aI14
aI0
aI3
aI14
aI23
aI18
aI41
aI2
aI24
aI3
aI16
aI0
aI0
aI18
aI40
aI4
aI37
aI13
aI20
aI38
aI2
aI33
aI55
aI7
aI31
aI0
aI41
aI21
aI6
aI9
aI0
aI52
aI4
aI52
aI5
aI8
aI5
aI22
aI20
aI21
aI38
aI0
aI3
aI22
aI32
aI33
aI83
aI7
aI57
aI0
aI61
aI22
aI20
aI17
aI36
aI1
aI7
aI29
aI26
aI51
aI29
aI11
aI2
aI24
aI5
aI64
aI17
aI4
aI33
aI3
aI5
aI8
aI30
aI18
aI9
aI18
aI16
aI0
aI42
aI21
aI2
aI45
aI25
aI18
aI27
aI0
aI22
aI20
aI27
aI6
aI22
aI14
aI49
aI33
aI1
aI49
aI38
aI33
aI4
aI23
aI31
aI4
aI15
aI49
aI51
aI21
aI26
aI34
aI8
aI0
aI18
aI5
aI40
aI14
aI48
aI16
aI0
aI31
aI7
aI16
aI20
aI39
aI39
aI48
aI51
aI36
aI7
aI40
aI27
aI15
aI5
aI6
aI17
aI2
aI0
aI10
aI1
aI34
aI26
aI41
aI0
aI25
aI13
aI19
aI16
aI19
aI19
aI39
aI11
aI80
aI27
aI39
aI20
aI20
aI25
aI7
aI14
aI17
aI64
aI31
aI9
aI25
aI7
aI22
aI20
aI30
aI16
aI12
aI5
aI42
aI4
aI14
aI37
aI47
aI17
aI52
aI40
aI44
aI59
aI29
aI1
aI14
aI3
aI0
aI15
aI28
aI14
aI7
aI34
aI29
aI21
aI31
aI1
aI16
aI31
aI14
aI40
aI32
aI25
aI1
aI37
aI6
aI8
aI3
aI34
aI36
aI38
aI16
aI16
aI13
aI4
aI41
aI5
aI30
aI28
aI31
aI34
aI0
aI5
aI25
aI0
aI42
aI17
aI4
aI9
aI9
aI30
aI22
aI42
aI39
aI16
aI52
aI23
aI43
aI6
aI15
aI54
aI38
aI34
aI25
aI9
aI16
aI15
aI44
aI5
aI3
aI12
aI0
aI83
aI32
aI18
aI27
aI7
aI23
aI31
aI20
aI27
aI22
aI21
aI20
aI8
aI47
aI41
aI2
aI81
aI49
aI18
aI18
aI0
aI33
aI13
aI19
aI36
aI31
aI44
aI4
aI5
aI47
aI14
aI47
aI54
aI16
aI70
aI3
aI15
aI1
aI21
aI24
aI20
aI35
aI29
aI37
aI8
aI30
aI33
aI7
aI39
aI5
aI18
aI0
aI17
aI13
aI47
aI15
aI6
aI29
aI23
aI0
aI17
aI51
aI28
aI26
aI52
aI14
aI41
aI6
aI26
aI1
aI21
aI0
aI28
aI28
aI22
aI16
aI46
aI32
aI0
aI46
aI9
aI49
aI39
aI15
aI12
aI17
aI46
aI25
aI51
aI51
aI19
aI52
aI34
aI1
aI19
aI19
aI50
aI14
aI34
aI35
aI55
aI19
aI16
aI59
aI33
aI21
aI5
aI49
aI33
aI9
aI7
aI4
aI7
aI3
aI20
aI5
aI2
aI21
aI39
aI1
aI3
aI43
aI31
aI14
aI14
aI0
aI22
aI0
aI57
aI32
aI9
aI35
aI41
aI1
aI31
aI29
aI12
aI36
aI32
aI14
aI29
aI0
aI13
aI19
aI18
aI21
aI13
aI33
aI3
aI19
aI26
aI28
aI44
aI43
aI19
aI39
aI18
aI39
aI33
aI14
aI39
aI24
aI48
aI21
aI4
aI37
aI16
aI35
aI20
aI22
aI22
aI10
aI34
aI46
aI29
aI20
aI23
aI35
aI6
aI45
aI67
aI16
aI7
aI17
aI31
aI11
aI15
aI31
aI21
aI20
aI38
aI7
aI19
aI4
aI40
aI26
aI20
aI25
aI28
aI18
aI42
aI17
aI47
aI62
aI47
aI34
aI21
aI30
aI17
aI22
aI15
aI7
aI3
aI43
aI4
aI58
aI5
aI1
aI18
aI19
aI24
aI3
aI38
aI2
aI29
aI24
aI20
aI60
aI27
aI4
aI35
aI15
aI27
aI54
aI24
aI22
aI10
aI22
aI22
aI2
aI27
aI5
aI30
aI1
aI23
aI16
aI18
aI35
aI32
aI45
aI3
aI17
aI2
aI50
aI38
aI52
aI34
aI17
aI2
aI10
aI28
aI11
aI33
aI14
aI7
aI49
aI16
aI22
aI21
aI34
aI15
aI36
aI9
aI33
aI57
aI14
aI29
aI3
aI58
aI37
aI16
aI4
aI4
aI6
aI13
aI33
aI21
aI44
aI23
aI13
aI3
aI42
aI21
aI69
aI21
aI30
aI46
aI1
aI47
aI8
asI18
(lp19
I0
aI7
aI5
aI0
aI11
aI1
aI1
aI6
aI0
aI5
aI2
aI8
aI10
aI0
aI0
aI0
aI3
aI5
aI4
aI5
aI4
aI5
aI7
aI3
aI6
aI3
aI5
aI0
aI0
aI0
aI6
aI6
aI3
aI11
aI14
aI9
aI1
aI5
aI6
aI2
aI8
aI0
aI6
aI7
aI1
aI0
aI6
aI0
aI5
aI4
aI0
aI5
aI17
aI3
aI1
aI2
aI1
aI19
aI2
aI0
aI0
aI7
aI0
aI7
aI3
aI4
aI0
aI4
aI6
aI0
aI0
aI6
aI0
aI1
aI0
aI3
aI3
aI7
aI2
aI11
aI0
aI0
aI9
aI9
aI0
aI1
aI5
aI7
aI9
aI2
aI4
aI3
aI7
aI7
aI0
aI4
aI2
aI0
aI11
aI10
aI4
aI7
aI2
aI4
aI0
aI8
aI4
aI8
aI7
aI2
aI0
aI0
aI1
aI3
aI8
aI0
aI10
aI0
aI7
aI4
aI5
aI2
aI2
aI3
aI5
aI2
aI0
aI2
aI0
aI8
aI3
aI7
aI3
aI4
aI10
aI3
aI1
aI5
aI2
aI0
aI6
aI4
aI3
aI1
aI10
aI0
aI9
aI11
aI4
aI3
aI3
aI6
aI7
aI10
aI4
aI4
aI5
aI0
aI6
aI7
aI0
aI4
aI0
aI3
aI0
aI0
aI6
aI5
aI0
aI2
aI0
aI7
aI5
aI4
aI4
aI7
aI7
aI0
aI1
aI2
aI0
aI7
aI6
aI8
aI14
aI6
aI3
aI5
aI7
aI5
aI5
aI4
aI4
aI12
aI0
aI2
aI4
aI1
aI5
aI7
aI1
aI8
aI1
aI7
aI0
aI5
aI2
aI2
aI1
aI13
aI0
aI7
aI5
aI2
aI3
aI6
aI9
aI9
aI2
aI0
aI1
aI7
aI1
aI6
aI1
aI0
aI8
aI1
aI0
aI4
aI3
aI4
aI1
aI0
aI6
aI0
aI4
aI3
aI3
aI0
aI8
aI2
aI5
aI4
aI6
aI6
aI0
aI4
aI6
aI10
aI2
aI3
aI2
aI10
aI10
aI0
aI3
aI1
aI1
aI8
aI3
aI12
aI0
aI2
aI1
aI0
aI6
aI5
aI5
aI0
aI1
aI6
aI0
aI12
aI6
aI0
aI0
aI0
aI6
aI13
aI1
aI12
aI5
aI9
aI3
aI3
aI1
aI13
aI0
aI2
aI3
aI0
aI3
aI6
aI7
aI7
aI0
aI7
aI1
aI0
aI6
aI2
aI0
aI0
aI4
aI8
aI8
aI0
aI0
aI10
aI0
aI0
aI3
aI5
aI4
aI3
aI3
aI0
aI3
aI1
aI8
aI1
aI5
aI0
aI6
aI5
aI6
aI8
aI3
aI0
aI0
aI4
aI5
aI8
aI4
aI7
aI7
aI0
aI8
aI0
aI9
aI1
aI5
aI1
aI0
aI10
aI0
aI5
aI0
aI6
aI0
aI5
aI6
aI7
aI1
aI1
aI2
aI0
aI5
aI4
aI5
aI6
aI10
aI2
aI0
aI4
aI10
aI0
aI0
aI7
aI6
aI2
aI1
aI0
aI6
aI2
aI6
aI0
aI3
aI0
aI0
aI5
aI3
aI8
aI5
aI8
aI4
aI0
aI0
aI2
aI0
aI12
aI10
aI5
aI2
aI10
aI3
aI4
aI2
aI5
aI8
aI8
aI0
aI3
aI0
aI5
aI3
aI1
aI3
aI5
aI4
aI2
aI1
aI4
aI3
aI3
aI2
aI3
aI3
aI8
aI4
aI6
aI0
aI0
aI2
aI16
aI4
aI1
aI0
aI0
aI1
aI4
aI0
aI1
aI0
aI7
aI7
aI6
aI2
aI8
aI1
aI13
aI3
aI1
aI5
aI4
aI3
aI6
aI0
aI6
aI8
aI2
aI5
aI0
aI4
aI7
aI0
aI4
aI2
aI3
aI13
aI4
aI5
aI9
aI13
aI4
aI5
aI11
aI5
aI1
aI0
aI0
aI0
aI8
aI1
aI1
aI6
aI4
aI7
aI2
aI5
aI6
aI5
aI8
aI2
aI1
aI0
aI7
aI6
aI4
aI3
aI0
aI1
aI0
aI0
aI10
aI1
aI6
aI0
aI10
aI10
aI0
aI0
aI2
aI0
aI0
aI1
aI6
aI1
aI6
aI0
aI6
aI0
aI2
aI0
aI0
aI2
aI7
aI0
aI10
aI2
aI5
aI10
aI0
aI5
aI14
aI0
aI3
aI0
aI12
aI2
aI1
aI3
aI0
aI13
aI0
aI8
aI0
aI1
aI0
aI3
aI3
aI2
aI10
aI0
aI0
aI6
aI4
aI7
aI16
aI0
aI12
aI0
aI5
aI0
aI2
aI4
aI15
aI0
aI0
aI3
aI6
aI0
aI11
aI1
aI0
aI3
aI1
aI5
aI5
aI0
aI7
aI0
aI1
aI1
aI2
aI2
aI1
aI0
aI1
aI0
aI7
aI5
aI0
aI2
aI5
aI0
aI6
aI0
aI2
aI5
aI4
aI0
aI6
aI0
aI8
aI8
aI0
aI8
aI7
aI2
aI0
aI3
aI5
aI0
aI5
aI9
aI13
aI2
aI7
aI5
aI0
aI0
aI3
aI0
aI7
aI5
aI11
aI2
aI0
aI11
aI0
aI4
aI4
aI7
aI8
aI4
aI7
aI8
aI0
aI11
aI5
aI2
aI1
aI0
aI3
aI0
aI0
aI5
aI0
aI5
aI1
aI12
aI0
aI6
aI1
aI4
aI2
aI1
aI1
aI8
aI0
aI13
aI6
aI11
aI3
aI5
aI7
aI1
aI5
aI5
aI8
aI6
aI1
aI4
aI0
aI2
aI0
aI5
aI3
aI1
aI0
aI9
aI0
aI2
aI7
aI9
aI2
aI7
aI2
aI6
aI12
aI7
aI0
aI3
aI0
aI0
aI4
aI4
aI4
aI0
aI10
aI6
aI2
aI8
aI0
aI0
aI5
aI2
aI6
aI5
aI5
aI0
aI9
aI1
aI0
aI0
aI9
aI11
aI6
aI2
aI3
aI2
aI0
aI8
aI0
aI8
aI3
aI2
aI12
aI0
aI0
aI2
aI0
aI13
aI0
aI0
aI2
aI1
aI8
aI6
aI9
aI11
aI2
aI8
aI2
aI11
aI0
aI3
aI16
aI12
aI2
aI7
aI0
aI3
aI5
aI6
aI1
aI0
aI3
aI0
aI22
aI9
aI1
aI8
aI0
aI3
aI6
aI0
aI3
aI6
aI6
aI3
aI1
aI8
aI2
aI0
aI20
aI8
aI2
aI4
aI0
aI5
aI3
aI3
aI8
aI4
aI7
aI0
aI0
aI8
aI2
aI12
aI14
aI3
aI15
aI0
aI3
aI0
aI4
aI8
aI2
aI6
aI7
aI10
aI0
aI5
aI4
aI1
aI6
aI0
aI2
aI0
aI1
aI0
aI12
aI2
aI1
aI6
aI3
aI0
aI6
aI11
aI8
aI3
aI9
aI2
aI7
aI0
aI5
aI0
aI4
aI0
aI7
aI6
aI7
aI2
aI11
aI4
aI0
aI15
aI0
aI9
aI7
aI4
aI0
aI3
aI6
aI7
aI12
aI11
aI2
aI4
aI3
aI0
aI8
aI1
aI13
aI1
aI6
aI9
aI3
aI2
aI1
aI12
aI6
aI5
aI0
aI13
aI3
aI0
aI1
aI0
aI0
aI0
aI5
aI1
aI0
aI5
aI9
aI0
aI0
aI10
aI5
aI2
aI2
aI0
aI4
aI0
aI7
aI7
aI0
aI8
aI11
aI0
aI6
aI8
aI2
aI7
aI7
aI1
aI5
aI0
aI4
aI7
aI2
aI3
aI4
aI10
aI0
aI2
aI4
aI5
aI6
aI14
aI2
aI9
aI2
aI9
aI9
aI3
aI10
aI3
aI4
aI5
aI0
aI3
aI5
aI4
aI3
aI5
aI6
aI0
aI10
aI8
aI5
aI2
aI2
aI6
aI0
aI13
aI23
aI3
aI0
aI3
aI3
aI0
aI2
aI6
aI4
aI0
aI12
aI1
aI5
aI1
aI6
aI5
aI8
aI4
aI3
aI2
aI7
aI2
aI7
aI14
aI8
aI6
aI2
aI6
aI2
aI4
aI3
aI0
aI0
aI11
aI0
aI16
aI0
aI0
aI1
aI4
aI3
aI0
aI12
aI0
aI5
aI2
aI4
aI9
aI3
aI0
aI3
aI1
aI3
aI5
aI4
aI3
aI0
aI1
aI8
aI0
aI3
aI0
aI9
aI0
aI6
aI1
aI1
aI2
aI4
aI14
aI0
aI2
aI0
aI6
aI8
aI12
aI6
aI5
aI0
aI0
aI5
aI1
aI6
aI3
aI0
aI9
aI5
aI1
aI3
aI4
aI1
aI0
aI0
aI6
aI10
aI3
aI4
aI0
aI14
aI3
aI7
aI0
aI0
aI0
aI2
aI4
aI2
aI6
aI4
aI4
aI0
aI5
aI2
aI9
aI6
aI4
aI9
aI0
aI9
aI0
asI19
(lp20
I0
aI0
aI0
aI0
aI6
aI0
aI0
aI2
aI0
aI1
aI0
aI1
aI1
aI0
aI0
aI0
aI0
aI2
aI0
aI1
aI0
aI0
aI2
aI0
aI0
aI1
aI1
aI0
aI0
aI0
aI1
aI0
aI0
aI0
aI2
aI0
aI0
aI1
aI2
aI0
aI0
aI0
aI0
aI0
aI0
aI0
aI0
aI0
aI0
aI1
aI0
aI1
aI8
aI1
aI0
aI1
aI0
aI8
aI0
aI0
aI0
aI1
aI0
aI1
aI0
aI1
aI0
aI1
aI0
aI0
aI0
aI0
aI0
aI0
aI0
aI0
aI1
aI0
aI0
aI2
aI0
aI0
aI2
aI2
aI0
aI0
aI0
aI2
aI1
aI0
aI0
aI1
aI5
aI2
aI0
aI0
aI1
aI0
aI2
aI3
aI1
aI2
aI0
aI0
aI0
aI1
aI0
aI1
aI1
aI0
aI0
aI0
aI0
aI0
aI2
aI0
aI1
aI0
aI1
aI0
aI1
aI0
aI0
aI0
aI2
aI0
aI0
aI0
aI0
aI2
aI1
aI0
aI0
aI0
aI3
aI1
aI1
aI1
aI0
aI0
aI0
aI1
aI1
aI0
aI4
aI0
aI1
aI2
aI0
aI0
aI1
aI0
aI1
aI2
aI0
aI0
aI1
aI0
aI2
aI1
aI0
aI0
aI0
aI0
aI0
aI0
aI2
aI0
aI0
aI0
aI0
aI0
aI0
aI1
aI0
aI0
aI3
aI1
aI0
aI0
aI0
aI1
aI0
aI1
aI4
aI0
aI0
aI1
aI2
aI0
aI3
aI0
aI0
aI1
aI0
aI1
aI3
aI0
aI1
aI1
aI0
aI0
aI0
aI2
aI0
aI2
aI0
aI0
aI0
aI0
aI0
aI0
aI2
aI0
aI0
aI1
aI0
aI2
aI0
aI0
aI1
aI1
aI0
aI1
aI3
aI0
aI0
aI0
aI0
aI0
aI2
aI0
aI0
aI0
aI1
aI0
aI0
aI1
aI1
aI0
aI0
aI0
aI2
aI0
aI1
aI1
aI0
aI1
aI0
aI4
aI0
aI0
aI0
aI2
aI1
aI0
aI0
aI0
aI0
aI1
aI0
aI2
aI0
aI0
aI0
aI0
aI1
aI0
aI4
aI0
aI1
aI0
aI0
aI4
aI2
aI0
aI0
aI0
aI2
aI5
aI1
aI0
aI1
aI5
aI1
aI1
aI0
aI1
aI0
aI0
aI1
aI0
aI1
aI0
aI5
aI0
aI0
aI1
aI0
aI0
aI4
aI0
aI0
aI0
aI1
aI1
aI1
aI0
aI0
aI1
aI0
aI0
aI0
aI1
aI0
aI0
aI1
aI0
aI0
aI1
aI2
aI0
aI1
aI0
aI1
aI1
aI0
aI0
aI1
aI0
aI0
aI0
aI0
aI1
aI0
aI1
aI0
aI0
aI1
aI0
aI0
aI0
aI0
aI1
aI0
aI1
aI0
aI0
aI0
aI0
aI0
aI0
aI0
aI0
aI1
aI1
aI0
aI0
aI0
aI2
aI3
aI0
aI1
aI0
aI0
aI0
aI2
aI0
aI0
aI2
aI2
aI0
aI1
aI0
aI1
aI0
aI2
aI0
aI0
aI0
aI0
aI1
aI0
aI0
aI1
aI2
aI0
aI0
aI0
aI0
aI0
aI2
aI1
aI1
aI0
aI3
aI1
aI2
aI0
aI1
aI0
aI1
aI0
aI1
aI0
aI0
aI1
aI0
aI0
aI1
aI1
aI0
aI0
aI0
aI0
aI0
aI0
aI0
aI0
aI5
aI0
aI1
aI0
aI0
aI0
aI3
aI0
aI0
aI0
aI0
aI0
aI2
aI0
aI0
aI0
aI1
aI1
aI0
aI0
aI5
aI0
aI5
aI0
aI0
aI1
aI1
aI1
aI2
aI0
aI1
aI0
aI0
aI0
aI0
aI2
aI1
aI0
aI0
aI0
aI0
aI2
aI0
aI0
aI2
aI5
aI2
aI0
aI2
aI0
aI0
aI0
aI0
aI0
aI1
aI0
aI0
aI1
aI0
aI0
aI0
aI1
aI3
aI1
aI0
aI0
aI0
aI0
aI1
aI2
aI1
aI0
aI0
aI0
aI0
aI0
aI3
aI0
aI0
aI0
aI5
aI2
aI0
aI0
aI0
aI0
aI0
aI0
aI0
aI1
aI1
aI0
aI2
aI0
aI1
aI0
aI0
aI1
aI1
aI0
aI1
aI0
aI0
aI2
aI0
aI0
aI3
aI0
aI2
aI0
aI1
aI1
aI0
aI0
aI0
aI2
aI0
aI5
aI0
aI0
aI0
aI1
aI0
aI1
aI2
aI0
aI0
aI0
aI1
aI2
aI3
aI0
aI0
aI0
aI4
aI0
aI0
aI2
aI1
aI0
aI0
aI1
aI0
aI5
aI1
aI0
aI0
aI0
aI0
aI4
aI0
aI0
aI1
aI0
aI0
aI0
aI0
aI0
aI0
aI1
aI0
aI0
aI2
aI0
aI0
aI2
aI0
aI0
aI1
aI0
aI1
aI0
aI1
aI0
aI0
aI0
aI1
aI0
aI0
aI3
aI1
aI1
aI0
aI0
aI1
aI0
aI0
aI1
aI2
aI1
aI2
aI2
aI0
aI0
aI0
aI0
aI1
aI0
aI3
aI1
aI0
aI1
aI0
aI0
aI0
aI1
aI2
aI0
aI2
aI1
aI0
aI1
aI1
aI0
aI0
aI0
aI0
aI0
aI0
aI0
aI0
aI0
aI0
aI3
aI0
aI2
aI0
aI0
aI0
aI1
aI0
aI0
aI0
aI6
aI1
aI0
aI1
aI0
aI2
aI0
aI0
aI0
aI2
aI0
aI0
aI0
aI0
aI0
aI0
aI1
aI0
aI0
aI0
aI2
aI0
aI0
aI2
aI2
aI0
aI1
aI1
aI2
aI2
aI1
aI0
aI0
aI0
aI0
aI0
aI1
aI0
aI0
aI1
aI2
aI0
aI3
aI0
aI0
aI1
aI0
aI1
aI0
aI1
aI0
aI2
aI0
aI0
aI0
aI0
aI1
aI2
aI0
aI1
aI0
aI0
aI0
aI0
aI0
aI0
aI0
aI1
aI0
aI0
aI0
aI0
aI3
aI0
aI0
aI0
aI0
aI1
aI0
aI2
aI1
aI1
aI2
aI0
aI1
aI0
aI0
aI3
aI2
aI2
aI0
aI0
aI0
aI0
aI4
aI0
aI0
aI0
aI0
aI4
aI1
aI0
aI1
aI0
aI1
aI2
aI0
aI1
aI0
aI0
aI0
aI0
aI1
aI0
aI0
aI2
aI1
aI0
aI0
aI0
aI1
aI0
aI0
aI2
aI2
aI3
aI0
aI0
aI2
aI0
aI2
aI2
aI0
aI3
aI0
aI0
aI0
aI0
aI0
aI0
aI0
aI0
aI1
aI0
aI3
aI0
aI0
aI2
aI0
aI0
aI0
aI0
aI0
aI1
aI1
aI0
aI1
aI1
aI0
aI0
aI4
aI0
aI2
aI3
aI0
aI2
aI0
aI1
aI0
aI0
aI0
aI0
aI0
aI0
aI0
aI2
aI1
aI0
aI2
aI0
aI3
aI2
aI0
aI0
aI0
aI3
aI1
aI2
aI2
aI1
aI2
aI2
aI0
aI0
aI0
aI1
aI0
aI1
aI1
aI2
aI0
aI0
aI5
aI0
aI0
aI0
aI2
aI2
aI0
aI0
aI0
aI0
aI0
aI0
aI0
aI0
aI0
aI2
aI0
aI0
aI3
aI1
aI0
aI0
aI0
aI0
aI0
aI5
aI0
aI0
aI1
aI1
aI0
aI2
aI1
aI0
aI2
aI0
aI0
aI1
aI0
aI0
aI0
aI0
aI1
aI0
aI0
aI0
aI1
aI0
aI0
aI1
aI1
aI0
aI1
aI0
aI1
aI1
aI0
aI2
aI1
aI2
aI0
aI0
aI1
aI0
aI0
aI0
aI0
aI0
aI0
aI1
aI1
aI2
aI1
aI0
aI1
aI0
aI2
aI9
aI0
aI0
aI0
aI3
aI0
aI0
aI1
aI0
aI0
aI2
aI0
aI0
aI0
aI2
aI1
aI1
aI0
aI0
aI0
aI2
aI2
aI5
aI2
aI2
aI1
aI1
aI0
aI1
aI1
aI0
aI0
aI0
aI1
aI0
aI3
aI0
aI0
aI0
aI0
aI1
aI0
aI3
aI0
aI0
aI1
aI0
aI3
aI1
aI0
aI1
aI0
aI1
aI3
aI0
aI0
aI0
aI1
aI1
aI0
aI0
aI0
aI0
aI0
aI1
aI0
aI0
aI1
aI0
aI1
aI0
aI0
aI0
aI2
aI2
aI1
aI0
aI0
aI0
aI0
aI1
aI0
aI2
aI1
aI0
aI2
aI0
aI0
aI2
aI1
aI0
aI0
aI0
aI1
aI2
aI0
aI1
aI0
aI3
aI1
aI0
aI0
aI0
aI0
aI0
aI0
aI0
aI0
aI1
aI0
aI0
aI1
aI0
aI4
aI1
aI0
aI3
aI0
aI0
aI0
asI-1
(lp21
I58838236
aI58879309
aI57644306
aI58386274
aI58947617
aI58865606
aI58345118
aI57919457
aI58441145
aI56899395
aI58207894
aI58125581
aI57754390
aI58865594
aI58399983
aI59193604
aI58687731
aI58865587
aI59248178
aI57561690
aI58660361
aI57685648
aI59043333
aI58386275
aI58139257
aI58591881
aI58180450
aI57726896
aI58001864
aI57699351
aI57175653
aI57451485
aI58687721
aI57410120
aI58029354
aI57809469
aI59166295
aI58441089
aI58317692
aI58933988
aI57203259
aI58070617
aI57754389
aI57768150
aI58249094
aI57437699
aI58454846
aI57037592
aI58139251
aI58399985
aI58947668
aI58015628
aI57492858
aI58001887
aI58180453
aI59029654
aI58111820
aI58399980
aI59915851
aI58070617
aI58619217
aI58345101
aI57933161
aI57795669
aI58413702
aI58111785
aI57561702
aI58221635
aI57244666
aI58111833
aI59207260
aI57726925
aI57891958
aI58865648
aI57313587
aI58166729
aI59111713
aI57644281
aI58207883
aI59575541
aI59002354
aI58427402
aI58221573
aI58769819
aI59316427
aI56844117
aI58290217
aI57905698
aI58221624
aI58166714
aI57616755
aI56899433
aI57850644
aI57506596
aI58468518
aI57823213
aI58111840
aI58961329
aI57850734
aI57630498
aI58810853
aI57341212
aI57299807
aI58249093
aI58687752
aI58851901
aI58317657
aI57658082
aI57726876
aI58961330
aI58084365
aI58331462
aI57410059
aI57768179
aI56982304
aI57327360
aI58523363
aI57616800
aI58550761
aI58001944
aI58290199
aI58961358
aI57575440
aI58331396
aI57286002
aI57754388
aI58276510
aI57161774
aI58591841
aI57946949
aI58783511
aI57465248
aI57217027
aI58098056
aI58070641
aI59152668
aI58358825
aI58399965
aI58947590
aI58056888
aI57891937
aI57423894
aI58345161
aI59738975
aI57120447
aI58372559
aI57272245
aI58303907
aI58509616
aI56802652
aI57988197
aI57258404
aI57726839
aI58084329
aI58591835
aI57685569
aI57492764
aI57864466
aI59275514
aI58221644
aI58331407
aI57905666
aI57437709
aI58331391
aI58660353
aI58742441
aI58509637
aI57988172
aI57946941
aI58399948
aI57520360
aI57768174
aI56636639
aI57740639
aI59138990
aI58070601
aI58249119
aI58207911
aI57065196
aI57506581
aI57589207
aI58495961
aI58194156
aI58056887
aI58427374
aI58125493
aI58468503
aI57327386
aI58084332
aI58687715
aI58619228
aI57575442
aI59411915
aI57009994
aI58221646
aI58098076
aI57864455
aI58015662
aI57878229
aI58715084
aI59002358
aI59056990
aI58372518
aI57106639
aI58619243
aI57781860
aI58537003
aI58070596
aI58427401
aI57589217
aI58756173
aI57946946
aI57781941
aI58646643
aI58797178
aI58386294
aI58605561
aI59507400
aI58824556
aI57506594
aI59616378
aI58879290
aI59289182
aI57065214
aI59234594
aI58564476
aI58523343
aI57809445
aI58838262
aI59056997
aI58166766
aI58399954
aI57933197
aI58619235
aI57630559
aI59043366
aI57974397
aI57534147
aI57795709
aI58441099
aI58303988
aI58139294
aI58495953
aI58701384
aI58660353
aI58001894
aI57974444
aI57988144
aI59452843
aI58591909
aI58249082
aI57685589
aI57630545
aI59548233
aI56844114
aI57974412
aI57437668
aI58001911
aI57354966
aI58235372
aI59670921
aI57988129
aI57299797
aI58482188
aI58001903
aI58701432
aI58399995
aI57891912
aI58056849
aI57850704
aI59057031
aI59330128
aI58166762
aI58838282
aI58070611
aI58399975
aI58646641
aI58537054
aI57671833
aI58152999
aI58550739
aI58783556
aI57575465
aI58660288
aI57919459
aI58605573
aI58879295
aI58098031
aI58454809
aI57520340
aI58358851
aI58674025
aI58043084
aI58879279
aI59179916
aI59125330
aI58290276
aI59084318
aI58988681
aI57919411
aI58180466
aI57327369
aI57299822
aI58098076
aI57148036
aI58509630
aI57988137
aI59029703
aI59043296
aI58084380
aI58399965
aI57974439
aI58235326
aI58961350
aI58413689
aI57630530
aI57216996
aI58125546
aI57134222
aI57919443
aI58207916
aI57506577
aI57423896
aI58207883
aI58427425
aI58345121
aI58276587
aI58221635
aI57795676
aI58166784
aI57878204
aI57946929
aI58111811
aI58043160
aI57823203
aI57520378
aI58605537
aI58851969
aI58153027
aI58824598
aI58345166
aI59125280
aI56968533
aI57809472
aI57809422
aI57795733
aI57382553
aI58180430
aI57974433
aI57299833
aI58783556
aI57809414
aI58468530
aI59711753
aI59056971
aI58070587
aI57341167
aI57451474
aI58152983
aI57946948
aI58742459
aI58043122
aI58194180
aI57120425
aI57905680
aI59357343
aI58152975
aI59138989
aI57933151
aI57534122
aI59493760
aI58728808
aI57451480
aI58290242
aI57437619
aI57092834
aI57078979
aI58139271
aI58715086
aI58715091
aI58070618
aI57658042
aI58084303
aI55860005
aI57272187
aI57092792
aI58701388
aI58509600
aI58098101
aI58358848
aI58056891
aI57836938
aI58578178
aI58509632
aI59002390
aI58249098
aI58111788
aI58111802
aI59166266
aI58537028
aI57010002
aI57768228
aI58865628
aI58468574
aI58125555
aI59684517
aI58619251
aI58865583
aI57492805
aI58975002
aI58070587
aI57437678
aI57009944
aI58495965
aI58920325
aI58249084
aI58920295
aI59738970
aI58482241
aI58427404
aI58660303
aI58152992
aI59070691
aI58194193
aI58660341
aI58345110
aI57781946
aI57479012
aI58207916
aI58687731
aI58125545
aI57161811
aI59534643
aI57396349
aI57561702
aI58207881
aI56678107
aI58701421
aI58468503
aI57216994
aI59766177
aI57905700
aI57988176
aI57465254
aI59738985
aI58139272
aI57520315
aI58605525
aI58358866
aI59179940
aI59152646
aI58947660
aI58660333
aI57547874
aI57850680
aI58249084
aI58715091
aI59084348
aI58427423
aI58249083
aI58029400
aI58632922
aI57795665
aI58509651
aI57988195
aI57685565
aI57217039
aI58756127
aI58111849
aI57740657
aI59043313
aI59097992
aI58468521
aI57644316
aI59138930
aI57809430
aI59248220
aI57823201
aI58235374
aI59057029
aI56678182
aI58933987
aI58906630
aI59384657
aI58221656
aI58605509
aI56885624
aI58851977
aI58125498
aI57919470
aI58043123
aI57878230
aI57754399
aI58249109
aI57795692
aI57823192
aI57726890
aI59029725
aI58331387
aI58810897
aI57065209
aI58769846
aI57671820
aI58207892
aI58358829
aI57726883
aI58865634
aI58249067
aI58742480
aI59029647
aI57891927
aI57781925
aI58180459
aI57905699
aI57258440
aI58851966
aI57878188
aI58084315
aI58166742
aI59834197
aI58537044
aI57134225
aI57919431
aI57616741
aI58715094
aI58331396
aI57520334
aI57658077
aI58290262
aI57713135
aI59521005
aI56553579
aI56442791
aI57410126
aI58372593
aI58221648
aI57699399
aI57878192
aI57354957
aI57203223
aI58358822
aI57974438
aI57933182
aI57974395
aI59220952
aI57630520
aI57506562
aI57327371
aI58591848
aI59152624
aI57768198
aI58358830
aI57740653
aI58262820
aI57754419
aI58660342
aI58838272
aI58043120
aI58988679
aI58345172
aI57134237
aI57078979
aI59330100
aI57823175
aI58139286
aI58194240
aI59534641
aI58523339
aI57933193
aI57795705
aI58673979
aI59384628
aI57836914
aI58756146
aI58783555
aI57286041
aI59330095
aI58810874
aI58564433
aI57933192
aI58482196
aI59425542
aI58646635
aI58221641
aI57561682
aI57451488
aI58591845
aI58262815
aI58303943
aI57023784
aI58098083
aI58125558
aI58797227
aI56968514
aI59029670
aI57988166
aI57009976
aI57740666
aI57864431
aI57520382
aI58509648
aI57341150
aI58537096
aI57768197
aI57905718
aI59521014
aI57919435
aI57754396
aI57699385
aI58331416
aI58537070
aI57575498
aI59029675
aI58687681
aI57423881
aI57671872
aI58262757
aI58687711
aI58975045
aI57850694
aI57078993
aI57754454
aI57768155
aI57946922
aI58550802
aI58290238
aI57244625
aI57988132
aI57547922
aI59493773
aI57988159
aI58605547
aI59193601
aI57836958
aI58550737
aI58769837
aI58413689
aI57699373
aI57823215
aI58345063
aI57795654
aI58564437
aI57479053
aI58564436
aI58578163
aI58578108
aI58056898
aI57327396
aI58687747
aI57616786
aI57919464
aI57106618
aI58111810
aI59275538
aI58098071
aI57726882
aI57423885
aI57079021
aI58468529
aI58578173
aI58756114
aI57726884
aI58427379
aI57946910
aI58879281
aI58317632
aI58262822
aI58728763
aI58454810
aI58427474
aI58372603
aI57037574
aI59575557
aI58838271
aI58098065
aI57713143
aI58715066
aI58454852
aI58783489
aI57382548
aI58345122
aI57092796
aI58906641
aI58084304
aI58824569
aI59602774
aI58043121
aI57616758
aI58413727
aI58413668
aI57864441
aI57465257
aI59220941
aI57410138
aI57065239
aI57905665
aI57809455
aI57616732
aI58276514
aI58317687
aI57203284
aI57960684
aI57905725
aI57479040
aI57272234
aI58303960
aI57960664
aI58043134
aI58454793
aI57974480
aI58262820
aI59070740
aI57134232
aI58303976
aI57589192
aI58249064
aI58933970
aI57671870
aI58660308
aI58386248
aI58372553
aI57589241
aI58290241
aI58070540
aI58537080
aI57561677
aI58303960
aI58015650
aI57547938
aI58084365
aI59630033
aI58632927
aI58276555
aI57492805
aI58331434
aI59138978
aI57974420
aI58468561
aI57492789
aI58345123
aI58550768
aI58180472
aI59316465
aI58783523
aI58235356
aI58262777
aI58043132
aI58303971
aI58372597
aI57534127
aI57630528
aI58879288
aI57520339
aI58125554
aI58386316
aI57671842
aI58317669
aI57382536
aI58290251
aI57547890
aI57891919
aI58358843
aI58180438
aI58290286
aI59057047
aI58194208
aI58742474
aI57561708
aI57685622
aI57354943
aI57809433
aI57795659
aI58139273
aI57492802
aI58043139
aI58728729
aI57244669
aI59098023
aI57768206
aI58345172
aI57437712
aI57561695
aI59179930
aI58865632
aI58262817
aI56913235
aI58194150
aI57685603
aI57823168
aI57864459
aI58701410
aI58207905
aI59152640
aI57850702
aI58578149
aI58029361
aI58166694
aI59275522
aI59466464
aI58851941
aI58345151
aI57479016
aI57534147
aI59970260
aI58221620
aI57699357
aI57161845
aI58221563
aI58262848
aI56968557
aI57354989
aI57864409
aI57781889
aI57451501
aI58043122
aI58084342
aI58125553
aI57175648
aI58715066
aI59043310
aI58152987
aI58262822
aI57713137
aI58070586
aI57933175
aI58111819
aI57754414
aI57589239
aI58920340
aI57658107
aI59425573
aI58290246
aI57217012
aI58276565
aI58166726
aI57230842
aI58441106
aI57946968
aI57891984
aI59029676
aI58715095
aI57451507
aI56913231
aI58756179
aI57878245
aI57878219
aI57946936
aI57092834
aI58879301
aI58646669
aI58317689
aI58537068
aI57823208
aI57644357
aI58920322
aI58056885
aI57671831
aI57699366
aI58084332
aI57575452
aI58441063
aI57506629
aI58262825
aI59602741
aI58591901
aI58728780
aI57313614
aI58098098
aI58303942
aI59480120
aI58386236
aI58317693
aI59630020
aI57602976
aI58947623
aI58276490
aI57795669
aI58015650
aI57382520
aI56940818
aI58509673
aI58564473
aI58441118
aI58468544
aI59820623
aI58399970
aI58934031
aI58427386
aI58166750
aI57781887
aI58441106
aI58468524
aI59507372
aI57616796
aI57754357
aI56775011
aI57905708
aI58441070
aI57891942
aI60174117
aI57933189
aI59084345
aI57809471
aI58358864
aI58249070
aI58235341
aI58454818
aI57768142
aI58892967
aI57823150
aI58111803
aI58001915
aI58482260
aI57699339
aI58235340
aI58235371
aI57547877
aI58482250
aI57850652
aI57726869
aI58701466
aI56802630
aI57988130
aI59793393
aI59043318
aI58235336
aI59452813
aI57768159
aI57850688
aI58262807
aI57630532
aI59589200
aI58070624
aI57864420
aI58578160
aI57974432
aI57410140
aI57781918
aI57630569
aI58509649
aI58427400
aI58139315
aI57671755
aI57616769
aI57768192
aI59452858
aI58056879
aI58715115
aI59943070
aI58276536
aI58550769
aI57809419
aI58015658
aI57905675
aI57960691
aI57905659
aI58920347
aI57768150
aI57905704
aI58153023
aI59125302
aI57891929
aI58139272
aI58427385
aI58358876
aI57506607
aI58194198
aI58152980
aI58495946
aI57299832
aI57754354
aI58701427
aI57685574
aI58701399
aI57382589
aI58207928
aI57327418
aI57768180
aI58961360
aI59070688
aI58646662
aI59125319
aI57836945
aI57161811
aI57451466
aI57713182
aI58578139
aI57203203
aI57410120
aI58207916
aI58509643
aI58358855
aI57341197
aI57313552
aI59111675
aI57878184
aI58111822
aI58345123
aI58166749
aI56913275
aI57960678
aI57603015
aI59507414
aI59043335
aI58892934
aI58043124
aI57382548
aI58961373
aI57658053
aI56968541
aI56885564
aI58399987
aI59029735
aI57891939
aI58646670
aI58728786
aI58482279
aI58098072
aI58427411
aI59466465
aI57410135
aI57506589
aI57946899
aI58824551
aI58687691
aI57258425
aI56539707
aI57960698
aI57437718
aI58015658
aI59220880
aI58674038
aI58001924
aI58139254
aI58715124
aI58098087
aI57341195
aI58139288
aI57589225
aI58111815
aI58906703
aI57946922
aI58070590
aI57974394
aI58029359
aI57740615
aI58207911
aI57299803
aI59193593
aI59084319
aI58372574
as.