(dp0
I0
I5731
sI1
I850
sI2
I23051
sI3
I375019
sI4
I1594549
sI5
I2260218
sI6
I1623926
sI7
I805569
sI8
I342669
sI9
I135715
sI10
I53040
sI11
I23540
sI12
I9991
sI13
I3181
sI14
I852
sI15
I245
sI16
I72
sI17
I15
sI18
I7
sI19
I1
sI20
I0
sI-1
I9166805
s.