(dp0
I0
I1824
sI1
I49
sI2
I2082
sI3
I25677
sI4
I115140
sI5
I178619
sI6
I135302
sI7
I63604
sI8
I23423
sI9
I8307
sI10
I2961
sI11
I1448
sI12
I1026
sI13
I351
sI14
I90
sI15
I25
sI16
I10
sI17
I0
sI18
I0
sI-1
I1104462
s.