(dp0
I0
I6762
sI1
I1287
sI2
I40034
sI3
I608982
sI4
I2336526
sI5
I3054096
sI6
I2080994
sI7
I1015146
sI8
I423939
sI9
I159194
sI10
I57295
sI11
I20677
sI12
I5952
sI13
I1502
sI14
I371
sI15
I79
sI16
I12
sI17
I1
sI18
I0
sI19
I0
sI20
I0
sI-1
I13052854
s.