(dp0
I0
I567
sI1
I0
sI2
I84
sI3
I342
sI4
I2231
sI5
I5515
sI6
I5973
sI7
I4084
sI8
I1899
sI9
I723
sI10
I223
sI11
I56
sI12
I54
sI13
I84
sI14
I53
sI15
I11
sI16
I7
sI17
I1
sI18
I0
sI19
I0
sI20
I0
sI21
I0
sI-1
I139121
s.