(dp0
I0
I11110
sI1
I4178
sI2
I118390
sI3
I1908133
sI4
I7352849
sI5
I9450252
sI6
I6347979
sI7
I2911336
sI8
I1083177
sI9
I366167
sI10
I103809
sI11
I26527
sI12
I6065
sI13
I1284
sI14
I204
sI15
I40
sI16
I5
sI17
I0
sI-1
I32030100
s.