(dp0
I0
I8489
sI1
I3250
sI2
I52563
sI3
I668690
sI4
I2788623
sI5
I4064575
sI6
I3067469
sI7
I1557313
sI8
I644346
sI9
I241278
sI10
I85301
sI11
I30514
sI12
I12182
sI13
I5041
sI14
I1672
sI15
I455
sI16
I124
sI17
I28
sI18
I5
sI19
I1
sI20
I0
sI21
I0
sI-1
I22803886
s.