(dp0
I0
I1400
sI1
I17
sI2
I1056
sI3
I12434
sI4
I58325
sI5
I92481
sI6
I77268
sI7
I42614
sI8
I18074
sI9
I7077
sI10
I2955
sI11
I1242
sI12
I378
sI13
I98
sI14
I20
sI15
I6
sI16
I2
sI17
I0
sI18
I0
sI19
I0
sI20
I0
sI-1
I665253
s.