(dp0
I0
I9442
sI1
I4044
sI2
I68828
sI3
I882614
sI4
I3634904
sI5
I5230203
sI6
I3884283
sI7
I1945207
sI8
I793264
sI9
I288958
sI10
I98987
sI11
I34670
sI12
I13657
sI13
I5603
sI14
I1823
sI15
I493
sI16
I129
sI17
I28
sI18
I5
sI19
I1
sI20
I0
sI21
I0
sI-1
I27683260
s.