(dp0
I0
I11531
sI1
I4892
sI2
I123828
sI3
I1901760
sI4
I7268675
sI5
I9406169
sI6
I6320896
sI7
I2958652
sI8
I1150932
sI9
I417518
sI10
I142626
sI11
I47677
sI12
I15947
sI13
I4427
sI14
I1093
sI15
I273
sI16
I54
sI17
I13
sI18
I0
sI-1
I36710783
s.