(dp0
I0
I17460
sI1
I8580
sI2
I385672
sI3
I7273037
sI4
I26401590
sI5
I30178309
sI6
I18052904
sI7
I7696198
sI8
I2714113
sI9
I851553
sI10
I278289
sI11
I84994
sI12
I26614
sI13
I8094
sI14
I1839
sI15
I427
sI16
I87
sI17
I16
sI18
I6
sI19
I0
sI-1
I58454748
s.