(dp0
I0
I8013
sI1
I2063
sI2
I51068
sI3
I775433
sI4
I3077966
sI5
I4216998
sI6
I3103758
sI7
I1580710
sI8
I639259
sI9
I225261
sI10
I70117
sI11
I20722
sI12
I7296
sI13
I2334
sI14
I643
sI15
I136
sI16
I30
sI17
I5
sI18
I0
sI19
I0
sI20
I0
sI21
I0
sI22
I0
sI-1
I18326279
s.