(dp0
I0
I9051
sI1
I3023
sI2
I71275
sI3
I1070638
sI4
I4179857
sI5
I5571830
sI6
I3849731
sI7
I1813909
sI8
I707002
sI9
I263473
sI10
I91564
sI11
I31504
sI12
I11077
sI13
I3247
sI14
I806
sI15
I206
sI16
I43
sI17
I10
sI18
I0
sI-1
I23286580
s.