(dp0
I0
I17209
sI1
I4417
sI2
I100411
sI3
I1421245
sI4
I5489551
sI5
I7509861
sI6
I5507399
sI7
I2796645
sI8
I1149989
sI9
I420630
sI10
I150186
sI11
I55012
sI12
I18538
sI13
I5047
sI14
I1242
sI15
I293
sI16
I74
sI17
I18
sI18
I2
sI19
I0
sI20
I0
sI-1
I123435676
s.