(dp0
I0
I6217
sI1
I1440
sI2
I27547
sI3
I419340
sI4
I1765066
sI5
I2489975
sI6
I1771139
sI7
I851335
sI8
I333647
sI9
I121372
sI10
I40523
sI11
I13937
sI12
I5520
sI13
I1727
sI14
I431
sI15
I115
sI16
I20
sI17
I6
sI18
I0
sI-1
I11479296
s.