(dp0
I0
I4683
sI1
I805
sI2
I10123
sI3
I130166
sI4
I617108
sI5
I1032271
sI6
I855426
sI7
I454029
sI8
I192839
sI9
I76348
sI10
I27578
sI11
I9716
sI12
I3676
sI13
I1852
sI14
I678
sI15
I192
sI16
I56
sI17
I16
sI18
I2
sI19
I1
sI20
I0
sI21
I0
sI-1
I7550021
s.