(dp0
I1
I-1
sI2
I-1
sI3
I-1
sI4
I-1
sI5
I-1
sI6
I-1
sI7
I-1
sI8
I-1
sI9
I-1
sI10
I-1
sI11
I-1
sI12
I-1
sI13
I-1
sI14
I-1
sI15
I-1
sI16
I-1
sI17
I-1
sI18
I-1
sI19
I-1
sI20
I-1
sI21
I-1
sI22
I-1
sI23
I-1
sI24
I-1
sI25
I-1
sI26
I-1
sI27
I-1
sI28
I-1
sI29
I-1
sI30
I-1
sI31
I-1
sI32
I-1
sI33
I-1
sI34
I-1
sI35
I-1
sI36
I-1
sI37
I-1
sI38
I-1
sI39
I-1
sI40
I-1
sI41
I-1
sI42
I-1
sI43
I-1
sI44
I-1
sI45
I-1
sI46
I-1
sI47
I-1
sI48
I-1
sI49
I-1
sI50
I-1
sI51
I-1
sI52
I-1
sI53
I-1
sI54
I-1
sI55
I-1
sI56
I-1
sI57
I-1
sI58
I-1
sI59
I-1
sI60
I-1
sI61
I-1
sI62
I-1
sI63
I-1
sI64
I-1
sI65
I-1
sI66
I-1
sI67
I-1
sI68
I-1
sI69
I-1
sI70
I-1
sI71
I-1
sI72
I-1
sI73
I-1
sI74
I-1
sI75
I-1
sI76
I-1
sI77
I-1
sI78
I-1
sI79
I-1
sI80
I-1
sI81
I-1
sI82
I-1
sI83
I-1
sI84
I-1
sI85
I-1
sI86
I-1
sI87
I-1
sI88
I-1
sI89
I-1
sI90
I-1
sI91
I-1
sI92
I-1
sI93
I-1
sI94
I-1
sI95
I-1
sI96
I-1
sI97
I-1
sI98
I-1
sI99
I-1
sI100
I-1
sI101
I-1
sI102
I-1
sI103
I-1
sI104
I-1
sI105
I-1
sI106
I-1
sI107
I-1
sI108
I-1
sI109
I-1
sI110
I-1
sI111
I-1
sI112
I-1
sI113
I-1
sI114
I-1
sI115
I-1
sI116
I-1
sI117
I-1
sI118
I-1
sI119
I-1
sI120
I-1
sI121
I-1
sI122
I-1
sI123
I-1
sI124
I-1
sI125
I-1
sI126
I-1
sI127
I-1
sI128
I-1
sI129
I-1
sI130
I-1
sI131
I-1
sI132
I-1
sI133
I-1
sI134
I-1
sI135
I-1
sI136
I-1
sI137
I-1
sI138
I-1
sI139
I-1
sI140
I-1
sI141
I-1
sI142
I-1
sI143
I-1
sI144
I-1
sI145
I-1
sI146
I-1
sI147
I-1
sI148
I-1
sI149
I-1
sI150
I-1
sI151
I-1
sI152
I-1
sI153
I-1
sI154
I-1
sI155
I-1
sI156
I-1
sI157
I-1
sI158
I-1
sI159
I-1
sI160
I-1
sI161
I-1
sI162
I-1
sI163
I-1
sI164
I-1
sI165
I-1
sI166
I-1
sI167
I-1
sI168
I-1
sI169
I-1
sI170
I-1
sI171
I-1
sI172
I-1
sI173
I-1
sI174
I-1
sI175
I-1
sI176
I-1
sI177
I-1
sI178
I-1
sI179
I-1
sI180
I-1
sI181
I-1
sI182
I-1
sI183
I-1
sI184
I-1
sI185
I-1
sI186
I-1
sI187
I-1
sI188
I-1
sI189
I-1
sI190
I-1
sI191
I-1
sI192
I-1
sI193
I-1
sI194
I-1
sI195
I-1
sI196
I-1
sI197
I-1
sI198
I-1
sI199
I-1
sI200
I-1
sI201
I-1
sI202
I-1
sI203
I-1
sI204
I-1
sI205
I-1
sI206
I-1
sI207
I-1
sI208
I-1
sI209
I-1
sI210
I-1
sI211
I-1
sI212
I-1
sI213
I-1
sI214
I-1
sI215
I-1
sI216
I-1
sI217
I-1
sI218
I-1
sI219
I-1
sI220
I-1
sI221
I-1
sI222
I-1
sI223
I-1
sI224
I-1
sI225
I-1
sI226
I-1
sI227
I-1
sI228
I-1
sI229
I-1
sI230
I-1
sI231
I-1
sI232
I-1
sI233
I-1
sI234
I-1
sI235
I-1
sI236
I-1
sI237
I-1
sI238
I-1
sI239
I-1
sI240
I-1
sI241
I-1
sI242
I-1
sI243
I-1
sI244
I-1
sI245
I-1
sI246
I-1
sI247
I-1
sI248
I-1
sI249
I-1
sI250
I-1
sI251
I-1
sI252
I-1
sI253
I-1
sI254
I-1
sI255
I-1
sI256
I-1
sI257
I-1
sI258
I-1
sI259
I-1
sI260
I-1
sI261
I-1
sI262
I-1
sI263
I-1
sI264
I-1
sI265
I-1
sI266
I-1
sI267
I-1
sI268
I-1
sI269
I-1
sI270
I-1
sI271
I-1
sI272
I-1
sI273
I-1
sI274
I-1
sI275
I-1
sI276
I-1
sI277
I-1
sI278
I-1
sI279
I-1
sI280
I-1
sI281
I-1
sI282
I-1
sI283
I-1
sI284
I-1
sI285
I-1
sI286
I-1
sI287
I-1
sI288
I-1
sI289
I-1
sI290
I-1
sI291
I-1
sI292
I-1
sI293
I-1
sI294
I-1
sI295
I-1
sI296
I-1
sI297
I-1
sI298
I-1
sI299
I-1
sI300
I-1
sI301
I-1
sI302
I-1
sI303
I-1
sI304
I-1
sI305
I-1
sI306
I-1
sI307
I-1
sI308
I-1
sI309
I-1
sI310
I-1
sI311
I-1
sI312
I-1
sI313
I-1
sI314
I-1
sI315
I-1
sI316
I-1
sI317
I-1
sI318
I-1
sI319
I-1
sI320
I-1
sI321
I-1
sI322
I-1
sI323
I-1
sI324
I-1
sI325
I-1
sI326
I-1
sI327
I-1
sI328
I-1
sI329
I-1
sI330
I-1
sI331
I-1
sI332
I-1
sI333
I-1
sI334
I-1
sI335
I-1
sI336
I-1
sI337
I-1
sI338
I-1
sI339
I-1
sI340
I-1
sI341
I-1
sI342
I-1
sI343
I-1
sI344
I-1
sI345
I-1
sI346
I-1
sI347
I-1
sI348
I-1
sI349
I-1
sI350
I-1
sI351
I-1
sI352
I-1
sI353
I-1
sI354
I-1
sI355
I-1
sI356
I-1
sI357
I-1
sI358
I-1
sI359
I-1
sI360
I-1
sI361
I-1
sI362
I-1
sI363
I-1
sI364
I-1
sI365
I-1
sI366
I-1
sI367
I-1
sI368
I-1
sI369
I-1
sI370
I-1
sI371
I-1
sI372
I-1
sI373
I-1
sI374
I-1
sI375
I-1
sI376
I-1
sI377
I-1
sI378
I-1
sI379
I-1
sI380
I-1
sI381
I-1
sI382
I-1
sI383
I-1
sI384
I-1
sI385
I-1
sI386
I-1
sI387
I-1
sI388
I-1
sI389
I-1
sI390
I-1
sI391
I-1
sI392
I-1
sI393
I-1
sI394
I-1
sI395
I-1
sI396
I-1
sI397
I-1
sI398
I-1
sI399
I-1
sI400
I-1
sI401
I-1
sI402
I-1
sI403
I-1
sI404
I-1
sI405
I-1
sI406
I-1
sI407
I-1
sI408
I-1
sI409
I-1
sI410
I-1
sI411
I-1
sI412
I-1
sI413
I-1
sI414
I-1
sI415
I-1
sI416
I-1
sI417
I-1
sI418
I-1
sI419
I-1
sI420
I-1
sI421
I-1
sI422
I-1
sI423
I-1
sI424
I-1
sI425
I-1
sI426
I-1
sI427
I-1
sI428
I-1
sI429
I-1
sI430
I-1
sI431
I-1
sI432
I-1
sI433
I-1
sI434
I-1
sI435
I-1
sI436
I-1
sI437
I-1
sI438
I-1
sI439
I-1
sI440
I-1
sI441
I-1
sI442
I-1
sI443
I-1
sI444
I-1
sI445
I-1
sI446
I-1
sI447
I-1
sI448
I-1
sI449
I-1
sI450
I-1
sI451
I-1
sI452
I-1
sI453
I-1
sI454
I-1
sI455
I-1
sI456
I-1
sI457
I-1
sI458
I-1
sI459
I-1
sI460
I-1
sI461
I-1
sI462
I-1
sI463
I-1
sI464
I-1
sI465
I-1
sI466
I-1
sI467
I-1
sI468
I-1
sI469
I-1
sI470
I-1
sI471
I-1
sI472
I-1
sI473
I-1
sI474
I-1
sI475
I-1
sI476
I-1
sI477
I-1
sI478
I-1
sI479
I-1
sI480
I-1
sI481
I-1
sI482
I-1
sI483
I-1
sI484
I-1
sI485
I-1
sI486
I-1
sI487
I-1
sI488
I-1
sI489
I-1
sI490
I-1
sI491
I-1
sI492
I-1
sI493
I-1
sI494
I-1
sI495
I-1
sI496
I-1
sI497
I-1
sI498
I-1
sI499
I-1
sI500
I-1
sI501
I-1
sI502
I-1
sI503
I-1
sI504
I-1
sI505
I-1
sI506
I-1
sI507
I-1
sI508
I-1
sI509
I-1
sI510
I-1
sI511
I-1
sI512
I-1
sI513
I-1
sI514
I-1
sI515
I-1
sI516
I-1
sI517
I-1
sI518
I-1
sI519
I-1
sI520
I-1
sI521
I-1
sI522
I-1
sI523
I-1
sI524
I-1
sI525
I-1
sI526
I-1
sI527
I-1
sI528
I-1
sI529
I-1
sI530
I-1
sI531
I-1
sI532
I-1
sI533
I-1
sI534
I-1
sI535
I-1
sI536
I-1
sI537
I-1
sI538
I-1
sI539
I-1
sI540
I-1
sI541
I-1
sI542
I-1
sI543
I-1
sI544
I-1
sI545
I-1
sI546
I-1
sI547
I-1
sI548
I-1
sI549
I-1
sI550
I-1
sI551
I-1
sI552
I-1
sI553
I-1
sI554
I-1
sI555
I-1
sI556
I-1
sI557
I-1
sI558
I-1
sI559
I-1
sI560
I-1
sI561
I-1
sI562
I-1
sI563
I-1
sI564
I-1
sI565
I-1
sI566
I-1
sI567
I-1
sI568
I-1
sI569
I-1
sI570
I-1
sI571
I-1
sI572
I-1
sI573
I-1
sI574
I-1
sI575
I-1
sI576
I-1
sI577
I-1
sI578
I-1
sI579
I-1
sI580
I-1
sI581
I-1
sI582
I-1
sI583
I-1
sI584
I-1
sI585
I-1
sI586
I-1
sI587
I-1
sI588
I-1
sI589
I-1
sI590
I-1
sI591
I-1
sI592
I-1
sI593
I-1
sI594
I-1
sI595
I-1
sI596
I-1
sI597
I-1
sI598
I-1
sI599
I-1
sI600
I-1
sI601
I-1
sI602
I-1
sI603
I-1
sI604
I-1
sI605
I-1
sI606
I-1
sI607
I-1
sI608
I-1
sI609
I-1
sI610
I-1
sI611
I-1
sI612
I-1
sI613
I-1
sI614
I-1
sI615
I-1
sI616
I-1
sI617
I-1
sI618
I-1
sI619
I-1
sI620
I-1
sI621
I-1
sI622
I-1
sI623
I-1
sI624
I-1
sI625
I-1
sI626
I-1
sI627
I-1
sI628
I-1
sI629
I-1
sI630
I-1
sI631
I-1
sI632
I-1
sI633
I-1
sI634
I-1
sI635
I-1
sI636
I-1
sI637
I-1
sI638
I-1
sI639
I-1
sI640
I-1
sI641
I-1
sI642
I-1
sI643
I-1
sI644
I-1
sI645
I-1
sI646
I-1
sI647
I-1
sI648
I-1
sI649
I-1
sI650
I-1
sI651
I-1
sI652
I-1
sI653
I-1
sI654
I-1
sI655
I-1
sI656
I-1
sI657
I-1
sI658
I-1
sI659
I-1
sI660
I-1
sI661
I-1
sI662
I-1
sI663
I-1
sI664
I-1
sI665
I-1
sI666
I-1
sI667
I-1
sI668
I-1
sI669
I-1
sI670
I-1
sI671
I-1
sI672
I-1
sI673
I-1
sI674
I-1
sI675
I-1
sI676
I-1
sI677
I-1
sI678
I-1
sI679
I-1
sI680
I-1
sI681
I-1
sI682
I-1
sI683
I-1
sI684
I-1
sI685
I-1
sI686
I-1
sI687
I-1
sI688
I-1
sI689
I-1
sI690
I-1
sI691
I-1
sI692
I-1
sI693
I-1
sI694
I-1
sI695
I-1
sI696
I-1
sI697
I-1
sI698
I-1
sI699
I-1
sI700
I-1
sI701
I-1
sI702
I-1
sI703
I-1
sI704
I-1
sI705
I-1
sI706
I-1
sI707
I-1
sI708
I-1
sI709
I-1
sI710
I-1
sI711
I-1
sI712
I-1
sI713
I-1
sI714
I-1
sI715
I-1
sI716
I-1
sI717
I-1
sI718
I-1
sI719
I-1
sI720
I-1
sI721
I-1
sI722
I-1
sI723
I-1
sI724
I-1
sI725
I-1
sI726
I-1
sI727
I-1
sI728
I-1
sI729
I-1
sI730
I-1
sI731
I-1
sI732
I-1
sI733
I-1
sI734
I-1
sI735
I-1
sI736
I-1
sI737
I-1
sI738
I-1
sI739
I-1
sI740
I-1
sI741
I-1
sI742
I-1
sI743
I-1
sI744
I-1
sI745
I-1
sI746
I-1
sI747
I-1
sI748
I-1
sI749
I-1
sI750
I-1
sI751
I-1
sI752
I-1
sI753
I-1
sI754
I-1
sI755
I-1
sI756
I-1
sI757
I-1
sI758
I-1
sI759
I-1
sI760
I-1
sI761
I-1
sI762
I-1
sI763
I-1
sI764
I-1
sI765
I-1
sI766
I-1
sI767
I-1
sI768
I-1
sI769
I-1
sI770
I-1
sI771
I-1
sI772
I-1
sI773
I-1
sI774
I-1
sI775
I-1
sI776
I-1
sI777
I-1
sI778
I-1
sI779
I-1
sI780
I-1
sI781
I-1
sI782
I-1
sI783
I-1
sI784
I-1
sI785
I-1
sI786
I-1
sI787
I-1
sI788
I-1
sI789
I-1
sI790
I-1
sI791
I-1
sI792
I-1
sI793
I-1
sI794
I-1
sI795
I-1
sI796
I-1
sI797
I-1
sI798
I-1
sI799
I-1
sI800
I-1
sI801
I-1
sI802
I-1
sI803
I-1
sI804
I-1
sI805
I-1
sI806
I-1
sI807
I-1
sI808
I-1
sI809
I-1
sI810
I-1
sI811
I-1
sI812
I-1
sI813
I-1
sI814
I-1
sI815
I-1
sI816
I-1
sI817
I-1
sI818
I-1
sI819
I-1
sI820
I-1
sI821
I-1
sI822
I-1
sI823
I-1
sI824
I-1
sI825
I-1
sI826
I-1
sI827
I-1
sI828
I-1
sI829
I-1
sI830
I-1
sI831
I-1
sI832
I-1
sI833
I-1
sI834
I-1
sI835
I-1
sI836
I-1
sI837
I-1
sI838
I-1
sI839
I-1
sI840
I-1
sI841
I-1
sI842
I-1
sI843
I-1
sI844
I-1
sI845
I-1
sI846
I-1
sI847
I-1
sI848
I-1
sI849
I-1
sI850
I-1
sI851
I-1
sI852
I-1
sI853
I-1
sI854
I-1
sI855
I-1
sI856
I-1
sI857
I-1
sI858
I-1
sI859
I-1
sI860
I-1
sI861
I-1
sI862
I-1
sI863
I-1
sI864
I-1
sI865
I-1
sI866
I-1
sI867
I-1
sI868
I-1
sI869
I-1
sI870
I-1
sI871
I-1
sI872
I-1
sI873
I-1
sI874
I-1
sI875
I-1
sI876
I-1
sI877
I-1
sI878
I-1
sI879
I-1
sI880
I-1
sI881
I-1
sI882
I-1
sI883
I-1
sI884
I-1
sI885
I-1
sI886
I-1
sI887
I-1
sI888
I-1
sI889
I-1
sI890
I-1
sI891
I-1
sI892
I-1
sI893
I-1
sI894
I-1
sI895
I-1
sI896
I-1
sI897
I-1
sI898
I-1
sI899
I-1
sI900
I-1
sI901
I-1
sI902
I-1
sI903
I-1
sI904
I-1
sI905
I-1
sI906
I-1
sI907
I-1
sI908
I-1
sI909
I-1
sI910
I-1
sI911
I-1
sI912
I-1
sI913
I-1
sI914
I-1
sI915
I-1
sI916
I-1
sI917
I-1
sI918
I-1
sI919
I-1
sI920
I-1
sI921
I-1
sI922
I-1
sI923
I-1
sI924
I-1
sI925
I-1
sI926
I-1
sI927
I-1
sI928
I-1
sI929
I-1
sI930
I-1
sI931
I-1
sI932
I-1
sI933
I-1
sI934
I-1
sI935
I-1
sI936
I-1
sI937
I-1
sI938
I-1
sI939
I-1
sI940
I-1
sI941
I-1
sI942
I-1
sI943
I-1
sI944
I-1
sI945
I-1
sI946
I-1
sI947
I-1
sI948
I-1
sI949
I-1
sI950
I-1
sI951
I-1
sI952
I-1
sI953
I-1
sI954
I-1
sI955
I-1
sI956
I-1
sI957
I-1
sI958
I-1
sI959
I-1
sI960
I-1
sI961
I-1
sI962
I-1
sI963
I-1
sI964
I-1
sI965
I-1
sI966
I-1
sI967
I-1
sI968
I-1
sI969
I-1
sI970
I-1
sI971
I-1
sI972
I-1
sI973
I-1
sI974
I-1
sI975
I-1
sI976
I-1
sI977
I-1
sI978
I-1
sI979
I-1
sI980
I-1
sI981
I-1
sI982
I-1
sI983
I-1
sI984
I-1
sI985
I-1
sI986
I-1
sI987
I-1
sI988
I-1
sI989
I-1
sI990
I-1
sI991
I-1
sI992
I-1
sI993
I-1
sI994
I-1
sI995
I-1
sI996
I-1
sI997
I-1
sI998
I-1
sI999
I-1
sI1000
I-1
sI1001
I-1
sI1002
I-1
sI1003
I-1
sI1004
I-1
sI1005
I-1
sI1006
I-1
sI1007
I-1
sI1008
I-1
sI1009
I-1
sI1010
I-1
sI1011
I-1
sI1012
I-1
sI1013
I-1
sI1014
I-1
sI1015
I-1
sI1016
I-1
sI1017
I-1
sI1018
I-1
sI1019
I-1
sI1020
I-1
sI1021
I-1
sI1022
I-1
sI1023
I-1
sI1024
I-1
sI1025
I-1
sI1026
I-1
sI1027
I-1
sI1028
I-1
sI1029
I-1
sI1030
I-1
sI1031
I-1
sI1032
I-1
sI1033
I-1
sI1034
I-1
sI1035
I-1
sI1036
I-1
sI1037
I-1
sI1038
I-1
sI1039
I-1
sI1040
I-1
sI1041
I-1
sI1042
I-1
sI1043
I-1
sI1044
I-1
sI1045
I-1
sI1046
I-1
sI1047
I-1
sI1048
I-1
sI1049
I-1
sI1050
I-1
sI1051
I-1
sI1052
I-1
sI1053
I-1
sI1054
I-1
sI1055
I-1
sI1056
I-1
sI1057
I-1
sI1058
I-1
sI1059
I-1
sI1060
I-1
sI1061
I-1
sI1062
I-1
sI1063
I-1
sI1064
I-1
sI1065
I-1
sI1066
I-1
sI1067
I-1
sI1068
I-1
sI1069
I-1
sI1070
I-1
sI1071
I-1
sI1072
I-1
sI1073
I-1
sI1074
I-1
sI1075
I-1
sI1076
I-1
sI1077
I-1
sI1078
I-1
sI1079
I-1
sI1080
I-1
sI1081
I-1
sI1082
I-1
sI1083
I-1
sI1084
I-1
sI1085
I-1
sI1086
I-1
sI1087
I-1
sI1088
I-1
sI1089
I-1
sI1090
I-1
sI1091
I-1
sI1092
I-1
sI1093
I-1
sI1094
I-1
sI1095
I-1
sI1096
I-1
sI1097
I-1
sI1098
I-1
sI1099
I-1
sI1100
I-1
sI1101
I-1
sI1102
I-1
sI1103
I-1
sI1104
I-1
sI1105
I-1
sI1106
I-1
sI1107
I-1
sI1108
I-1
sI1109
I-1
sI1110
I-1
sI1111
I-1
sI1112
I-1
sI1113
I-1
sI1114
I-1
sI1115
I-1
sI1116
I-1
sI1117
I-1
sI1118
I-1
sI1119
I-1
sI1120
I-1
sI1121
I-1
sI1122
I-1
sI1123
I-1
sI1124
I-1
sI1125
I-1
sI1126
I-1
sI1127
I-1
sI1128
I-1
sI1129
I-1
sI1130
I-1
sI1131
I-1
sI1132
I-1
sI1133
I-1
sI1134
I-1
sI1135
I-1
sI1136
I-1
sI1137
I-1
sI1138
I-1
sI1139
I-1
sI1140
I-1
sI1141
I-1
sI1142
I-1
sI1143
I-1
sI1144
I-1
sI1145
I-1
sI1146
I-1
sI1147
I-1
sI1148
I-1
sI1149
I-1
sI1150
I-1
sI1151
I-1
sI1152
I-1
sI1153
I-1
sI1154
I-1
sI1155
I-1
sI1156
I-1
sI1157
I-1
sI1158
I-1
sI1159
I-1
sI1160
I-1
sI1161
I-1
sI1162
I-1
sI1163
I-1
sI1164
I-1
sI1165
I-1
sI1166
I-1
sI1167
I-1
sI1168
I-1
sI1169
I-1
sI1170
I-1
sI1171
I-1
sI1172
I-1
sI1173
I-1
sI1174
I-1
sI1175
I-1
sI1176
I-1
sI1177
I-1
sI1178
I-1
sI1179
I-1
sI1180
I-1
sI1181
I-1
sI1182
I-1
sI1183
I-1
sI1184
I-1
sI1185
I-1
sI1186
I-1
sI1187
I-1
sI1188
I-1
sI1189
I-1
sI1190
I-1
sI1191
I-1
sI1192
I-1
sI1193
I-1
sI1194
I-1
sI1195
I-1
sI1196
I-1
sI1197
I-1
sI1198
I-1
sI1199
I-1
sI1200
I-1
sI1201
I-1
sI1202
I-1
sI1203
I-1
sI1204
I-1
sI1205
I-1
sI1206
I-1
sI1207
I-1
sI1208
I-1
sI1209
I-1
sI1210
I-1
sI1211
I-1
sI1212
I-1
sI1213
I-1
sI1214
I-1
sI1215
I-1
sI1216
I-1
sI1217
I-1
sI1218
I-1
sI1219
I-1
sI1220
I-1
sI1221
I-1
sI1222
I-1
sI1223
I-1
sI1224
I-1
sI1225
I-1
sI1226
I-1
sI1227
I-1
sI1228
I-1
sI1229
I-1
sI1230
I-1
sI1231
I-1
sI1232
I-1
sI1233
I-1
sI1234
I-1
sI1235
I-1
sI1236
I-1
sI1237
I-1
sI1238
I-1
sI1239
I-1
sI1240
I-1
sI1241
I-1
sI1242
I-1
sI1243
I-1
sI1244
I-1
sI1245
I-1
sI1246
I-1
sI1247
I-1
sI1248
I-1
sI1249
I-1
sI1250
I-1
sI1251
I-1
sI1252
I-1
sI1253
I-1
sI1254
I-1
sI1255
I-1
sI1256
I-1
sI1257
I-1
sI1258
I-1
sI1259
I-1
sI1260
I-1
sI1261
I-1
sI1262
I-1
sI1263
I-1
sI1264
I-1
sI1265
I-1
sI1266
I-1
sI1267
I-1
sI1268
I-1
sI1269
I-1
sI1270
I-1
sI1271
I-1
sI1272
I-1
sI1273
I-1
sI1274
I-1
sI1275
I-1
sI1276
I-1
sI1277
I-1
sI1278
I-1
sI1279
I-1
sI1280
I-1
sI1281
I-1
sI1282
I-1
sI1283
I-1
sI1284
I-1
sI1285
I-1
sI1286
I-1
sI1287
I-1
sI1288
I-1
sI1289
I-1
sI1290
I-1
sI1291
I-1
sI1292
I-1
sI1293
I-1
sI1294
I-1
sI1295
I-1
sI1296
I-1
sI1297
I-1
sI1298
I-1
sI1299
I-1
sI1300
I-1
sI1301
I-1
sI1302
I-1
sI1303
I-1
sI1304
I-1
sI1305
I-1
sI1306
I-1
sI1307
I-1
sI1308
I-1
sI1309
I-1
sI1310
I-1
sI1311
I-1
sI1312
I-1
sI1313
I-1
sI1314
I-1
sI1315
I-1
sI1316
I-1
sI1317
I-1
sI1318
I-1
sI1319
I-1
sI1320
I-1
sI1321
I-1
sI1322
I-1
sI1323
I-1
sI1324
I-1
sI1325
I-1
sI1326
I-1
sI1327
I-1
sI1328
I-1
sI1329
I-1
sI1330
I-1
sI1331
I-1
sI1332
I-1
sI1333
I-1
sI1334
I-1
sI1335
I-1
sI1336
I-1
sI1337
I-1
sI1338
I-1
sI1339
I-1
sI1340
I-1
sI1341
I-1
sI1342
I-1
sI1343
I-1
sI1344
I-1
sI1345
I-1
sI1346
I-1
sI1347
I-1
sI1348
I-1
sI1349
I-1
sI1350
I-1
sI1351
I-1
sI1352
I-1
sI1353
I-1
sI1354
I-1
sI1355
I-1
sI1356
I-1
sI1357
I-1
sI1358
I-1
sI1359
I-1
sI1360
I-1
sI1361
I-1
sI1362
I-1
sI1363
I-1
sI1364
I-1
sI1365
I-1
sI1366
I-1
sI1367
I-1
sI1368
I-1
sI1369
I-1
sI1370
I-1
sI1371
I-1
sI1372
I-1
sI1373
I-1
sI1374
I-1
sI1375
I-1
sI1376
I-1
sI1377
I-1
sI1378
I-1
sI1379
I-1
sI1380
I-1
sI1381
I-1
sI1382
I-1
sI1383
I-1
sI1384
I-1
sI1385
I-1
sI1386
I-1
sI1387
I-1
sI1388
I-1
sI1389
I-1
sI1390
I-1
sI1391
I-1
sI1392
I-1
sI1393
I-1
sI1394
I-1
sI1395
I-1
sI1396
I-1
sI1397
I-1
sI1398
I-1
sI1399
I-1
sI1400
I-1
sI1401
I-1
sI1402
I-1
sI1403
I-1
sI1404
I-1
sI1405
I-1
sI1406
I-1
sI1407
I-1
sI1408
I-1
sI1409
I-1
sI1410
I-1
sI1411
I-1
sI1412
I-1
sI1413
I-1
sI1414
I-1
sI1415
I-1
sI1416
I-1
sI1417
I-1
sI1418
I-1
sI1419
I-1
sI1420
I-1
sI1421
I-1
sI1422
I-1
sI1423
I-1
sI1424
I-1
sI1425
I-1
sI1426
I-1
sI1427
I-1
sI1428
I-1
sI1429
I-1
sI1430
I-1
sI1431
I-1
sI1432
I-1
sI1433
I-1
sI1434
I-1
sI1435
I-1
sI1436
I-1
sI1437
I-1
sI1438
I-1
sI1439
I-1
sI1440
I-1
sI1441
I-1
sI1442
I-1
sI1443
I-1
sI1444
I-1
sI1445
I-1
sI1446
I-1
sI1447
I-1
sI1448
I-1
sI1449
I-1
sI1450
I-1
sI1451
I-1
sI1452
I-1
sI1453
I-1
sI1454
I-1
sI1455
I-1
sI1456
I-1
sI1457
I-1
sI1458
I-1
sI1459
I-1
sI1460
I-1
sI1461
I-1
sI1462
I-1
sI1463
I-1
sI1464
I-1
sI1465
I-1
sI1466
I-1
sI1467
I-1
sI1468
I-1
sI1469
I-1
sI1470
I-1
sI1471
I-1
sI1472
I-1
sI1473
I-1
sI1474
I-1
sI1475
I-1
sI1476
I-1
sI1477
I-1
sI1478
I-1
sI1479
I-1
sI1480
I-1
sI1481
I-1
sI1482
I-1
sI1483
I-1
sI1484
I-1
sI1485
I-1
sI1486
I-1
sI1487
I-1
sI1488
I-1
sI1489
I-1
sI1490
I-1
sI1491
I-1
sI1492
I-1
sI1493
I-1
sI1494
I-1
sI1495
I-1
sI1496
I-1
sI1497
I-1
sI1498
I-1
sI1499
I-1
sI1500
I-1
sI1501
I-1
sI1502
I-1
sI1503
I-1
sI1504
I-1
sI1505
I-1
sI1506
I-1
sI1507
I-1
sI1508
I-1
sI1509
I-1
sI1510
I-1
sI1511
I-1
sI1512
I-1
sI1513
I-1
sI1514
I-1
sI1515
I-1
sI1516
I-1
sI1517
I-1
sI1518
I-1
sI1519
I-1
sI1520
I-1
sI1521
I-1
sI1522
I-1
sI1523
I-1
sI1524
I-1
sI1525
I-1
sI1526
I-1
sI1527
I-1
sI1528
I-1
sI1529
I-1
sI1530
I-1
sI1531
I-1
sI1532
I-1
sI1533
I-1
sI1534
I-1
sI1535
I-1
sI1536
I-1
sI1537
I-1
sI1538
I-1
sI1539
I-1
sI1540
I-1
sI1541
I-1
sI1542
I-1
sI1543
I-1
sI1544
I-1
sI1545
I-1
sI1546
I-1
sI1547
I-1
sI1548
I-1
sI1549
I-1
sI1550
I-1
sI1551
I-1
sI1552
I-1
sI1553
I-1
sI1554
I-1
sI1555
I-1
sI1556
I-1
sI1557
I-1
sI1558
I-1
sI1559
I-1
sI1560
I-1
sI1561
I-1
sI1562
I-1
sI1563
I-1
sI1564
I-1
sI1565
I-1
sI1566
I-1
sI1567
I-1
sI1568
I-1
sI1569
I-1
sI1570
I-1
sI1571
I-1
sI1572
I-1
sI1573
I-1
sI1574
I-1
sI1575
I-1
sI1576
I-1
sI1577
I-1
sI1578
I-1
sI1579
I-1
sI1580
I-1
sI1581
I-1
sI1582
I-1
sI1583
I-1
sI1584
I-1
sI1585
I-1
sI1586
I-1
sI1587
I-1
sI1588
I-1
sI1589
I-1
sI1590
I-1
sI1591
I-1
sI1592
I-1
sI1593
I-1
sI1594
I-1
sI1595
I-1
sI1596
I-1
sI1597
I-1
sI1598
I-1
sI1599
I-1
sI1600
I-1
sI1601
I-1
sI1602
I-1
sI1603
I-1
sI1604
I-1
sI1605
I-1
sI1606
I-1
sI1607
I-1
sI1608
I-1
sI1609
I-1
sI1610
I-1
sI1611
I-1
sI1612
I-1
sI1613
I-1
sI1614
I-1
sI1615
I-1
sI1616
I-1
sI1617
I-1
sI1618
I-1
sI1619
I-1
sI1620
I-1
sI1621
I-1
sI1622
I-1
sI1623
I-1
sI1624
I-1
sI1625
I-1
sI1626
I-1
sI1627
I-1
sI1628
I-1
sI1629
I-1
sI1630
I-1
sI1631
I-1
sI1632
I-1
sI1633
I-1
sI1634
I-1
sI1635
I-1
sI1636
I-1
sI1637
I-1
sI1638
I-1
sI1639
I-1
sI1640
I-1
sI1641
I-1
sI1642
I-1
sI1643
I-1
sI1644
I-1
sI1645
I-1
sI1646
I-1
sI1647
I-1
sI1648
I-1
sI1649
I-1
sI1650
I-1
sI1651
I-1
sI1652
I-1
sI1653
I-1
sI1654
I-1
sI1655
I-1
sI1656
I-1
sI1657
I-1
sI1658
I-1
sI1659
I-1
sI1660
I-1
sI1661
I-1
sI1662
I-1
sI1663
I-1
sI1664
I-1
sI1665
I-1
sI1666
I-1
sI1667
I-1
sI1668
I-1
sI1669
I-1
sI1670
I-1
sI1671
I-1
sI1672
I-1
sI1673
I-1
sI1674
I-1
sI1675
I-1
sI1676
I-1
sI1677
I-1
sI1678
I-1
sI1679
I-1
sI1680
I-1
sI1681
I-1
sI1682
I-1
sI1683
I-1
sI1684
I-1
sI1685
I-1
sI1686
I-1
sI1687
I-1
sI1688
I-1
sI1689
I-1
sI1690
I-1
sI1691
I-1
sI1692
I-1
sI1693
I-1
sI1694
I-1
sI1695
I-1
sI1696
I-1
sI1697
I-1
sI1698
I-1
sI1699
I-1
sI1700
I-1
sI1701
I-1
sI1702
I-1
sI1703
I-1
sI1704
I-1
sI1705
I-1
sI1706
I-1
sI1707
I-1
sI1708
I-1
sI1709
I-1
sI1710
I-1
sI1711
I-1
sI1712
I-1
sI1713
I-1
sI1714
I-1
sI1715
I-1
sI1716
I-1
sI1717
I-1
sI1718
I-1
sI1719
I-1
sI1720
I-1
sI1721
I-1
sI1722
I-1
sI1723
I-1
sI1724
I-1
sI1725
I-1
sI1726
I-1
sI1727
I-1
sI1728
I-1
sI1729
I-1
sI1730
I-1
sI1731
I-1
sI1732
I-1
sI1733
I-1
sI1734
I-1
sI1735
I-1
sI1736
I-1
sI1737
I-1
sI1738
I-1
sI1739
I-1
sI1740
I-1
sI1741
I-1
sI1742
I-1
sI1743
I-1
sI1744
I-1
sI1745
I-1
sI1746
I-1
sI1747
I-1
sI1748
I-1
sI1749
I-1
sI1750
I-1
sI1751
I-1
sI1752
I-1
sI1753
I-1
sI1754
I-1
sI1755
I-1
sI1756
I-1
sI1757
I-1
sI1758
I-1
sI1759
I-1
sI1760
I-1
sI1761
I-1
sI1762
I-1
sI1763
I-1
sI1764
I-1
sI1765
I-1
sI1766
I-1
sI1767
I-1
sI1768
I-1
sI1769
I-1
sI1770
I-1
sI1771
I-1
sI1772
I-1
sI1773
I-1
sI1774
I-1
sI1775
I-1
sI1776
I-1
sI1777
I-1
sI1778
I-1
sI1779
I-1
sI1780
I-1
sI1781
I-1
sI1782
I-1
sI1783
I-1
sI1784
I-1
sI1785
I-1
sI1786
I-1
sI1787
I-1
sI1788
I-1
sI1789
I-1
sI1790
I-1
sI1791
I-1
sI1792
I-1
sI1793
I-1
sI1794
I-1
sI1795
I-1
sI1796
I-1
sI1797
I-1
sI1798
I-1
sI1799
I-1
sI1800
I-1
sI1801
I-1
sI1802
I-1
sI1803
I-1
sI1804
I-1
sI1805
I-1
sI1806
I-1
sI1807
I-1
sI1808
I-1
sI1809
I-1
sI1810
I-1
sI1811
I-1
sI1812
I-1
sI1813
I-1
sI1814
I-1
sI1815
I-1
sI1816
I-1
sI1817
I-1
sI1818
I-1
sI1819
I-1
sI1820
I-1
sI1821
I-1
sI1822
I-1
sI1823
I-1
sI1824
I-1
sI1825
I-1
sI1826
I-1
sI1827
I-1
sI1828
I-1
sI1829
I-1
sI1830
I-1
sI1831
I-1
sI1832
I-1
sI1833
I-1
sI1834
I-1
sI1835
I-1
sI1836
I-1
sI1837
I-1
sI1838
I-1
sI1839
I-1
sI1840
I-1
sI1841
I-1
sI1842
I-1
sI1843
I-1
sI1844
I-1
sI1845
I-1
sI1846
I-1
sI1847
I-1
sI1848
I-1
sI1849
I-1
sI1850
I-1
sI1851
I-1
sI1852
I-1
sI1853
I-1
sI1854
I-1
sI1855
I-1
sI1856
I-1
sI1857
I-1
sI1858
I-1
sI1859
I-1
sI1860
I-1
sI1861
I-1
sI1862
I-1
sI1863
I-1
sI1864
I-1
sI1865
I-1
sI1866
I-1
sI1867
I-1
sI1868
I-1
sI1869
I-1
sI1870
I-1
sI1871
I-1
sI1872
I-1
sI1873
I-1
sI1874
I-1
sI1875
I-1
sI1876
I-1
sI1877
I-1
sI1878
I-1
sI1879
I-1
sI1880
I-1
sI1881
I-1
sI1882
I-1
sI1883
I-1
sI1884
I-1
sI1885
I-1
sI1886
I-1
sI1887
I-1
sI1888
I-1
sI1889
I-1
sI1890
I-1
sI1891
I-1
sI1892
I-1
sI1893
I-1
sI1894
I-1
sI1895
I-1
sI1896
I-1
sI1897
I-1
sI1898
I-1
sI1899
I-1
sI1900
I-1
sI1901
I-1
sI1902
I-1
sI1903
I-1
sI1904
I-1
sI1905
I-1
sI1906
I-1
sI1907
I-1
sI1908
I-1
sI1909
I-1
sI1910
I-1
sI1911
I-1
sI1912
I-1
sI1913
I-1
sI1914
I-1
sI1915
I-1
sI1916
I-1
sI1917
I-1
sI1918
I-1
sI1919
I-1
sI1920
I-1
sI1921
I-1
sI1922
I-1
sI1923
I-1
sI1924
I-1
sI1925
I-1
sI1926
I-1
sI1927
I-1
sI1928
I-1
sI1929
I-1
sI1930
I-1
sI1931
I-1
sI1932
I-1
sI1933
I-1
sI1934
I-1
sI1935
I-1
sI1936
I-1
sI1937
I-1
sI1938
I-1
sI1939
I-1
sI1940
I-1
sI1941
I-1
sI1942
I-1
sI1943
I-1
sI1944
I-1
sI1945
I-1
sI1946
I-1
sI1947
I-1
sI1948
I-1
sI1949
I-1
sI1950
I-1
sI1951
I-1
sI1952
I-1
sI1953
I-1
sI1954
I-1
sI1955
I-1
sI1956
I-1
sI1957
I-1
sI1958
I-1
sI1959
I-1
sI1960
I-1
sI1961
I-1
sI1962
I-1
sI1963
I-1
sI1964
I-1
sI1965
I-1
sI1966
I-1
sI1967
I-1
sI1968
I-1
sI1969
I-1
sI1970
I-1
sI1971
I-1
sI1972
I-1
sI1973
I-1
sI1974
I-1
sI1975
I-1
sI1976
I-1
sI1977
I-1
sI1978
I-1
sI1979
I-1
sI1980
I-1
sI1981
I-1
sI1982
I-1
sI1983
I-1
sI1984
I-1
sI1985
I-1
sI1986
I-1
sI1987
I-1
sI1988
I-1
sI1989
I-1
sI1990
I-1
sI1991
I-1
sI1992
I-1
sI1993
I-1
sI1994
I-1
sI1995
I-1
sI1996
I-1
sI1997
I-1
sI1998
I-1
sI1999
I-1
sI2000
I-1
sI2001
I-1
sI2002
I-1
sI2003
I-1
sI2004
I-1
sI2005
I-1
sI2006
I-1
sI2007
I-1
sI2008
I-1
sI2009
I-1
sI2010
I-1
sI2011
I-1
sI2012
I-1
sI2013
I-1
sI2014
I-1
sI2015
I-1
sI2016
I-1
sI2017
I-1
sI2018
I-1
sI2019
I-1
sI2020
I-1
sI2021
I-1
sI2022
I-1
sI2023
I-1
sI2024
I-1
sI2025
I-1
sI2026
I-1
sI2027
I-1
sI2028
I-1
sI2029
I-1
sI2030
I-1
sI2031
I-1
sI2032
I-1
sI2033
I-1
sI2034
I-1
sI2035
I-1
sI2036
I-1
sI2037
I-1
sI2038
I-1
sI2039
I-1
sI2040
I-1
sI2041
I-1
sI2042
I-1
sI2043
I-1
sI2044
I-1
sI2045
I-1
sI2046
I-1
sI2047
I-1
sI2048
I-1
sI2049
I-1
sI2050
I-1
sI2051
I-1
sI2052
I-1
sI2053
I-1
sI2054
I-1
sI2055
I-1
sI2056
I-1
sI2057
I-1
sI2058
I-1
sI2059
I-1
sI2060
I-1
sI2061
I-1
sI2062
I-1
sI2063
I-1
sI2064
I-1
sI2065
I-1
sI2066
I-1
sI2067
I-1
sI2068
I-1
sI2069
I-1
sI2070
I-1
sI2071
I-1
sI2072
I-1
sI2073
I-1
sI2074
I-1
sI2075
I-1
sI2076
I-1
sI2077
I-1
sI2078
I-1
sI2079
I-1
sI2080
I-1
sI2081
I-1
sI2082
I-1
sI2083
I-1
sI2084
I-1
sI2085
I-1
sI2086
I-1
sI2087
I-1
sI2088
I-1
sI2089
I-1
sI2090
I-1
sI2091
I-1
sI2092
I-1
sI2093
I-1
sI2094
I-1
sI2095
I-1
sI2096
I-1
sI2097
I-1
sI2098
I-1
sI2099
I-1
sI2100
I-1
sI2101
I-1
sI2102
I-1
sI2103
I-1
sI2104
I-1
sI2105
I-1
sI2106
I-1
sI2107
I-1
sI2108
I-1
sI2109
I-1
sI2110
I-1
sI2111
I-1
sI2112
I-1
sI2113
I-1
sI2114
I-1
sI2115
I-1
sI2116
I-1
sI2117
I-1
sI2118
I-1
sI2119
I-1
sI2120
I-1
sI2121
I-1
sI2122
I-1
sI2123
I-1
sI2124
I-1
sI2125
I-1
sI2126
I-1
sI2127
I-1
sI2128
I-1
sI2129
I-1
sI2130
I-1
sI2131
I-1
sI2132
I-1
sI2133
I-1
sI2134
I-1
sI2135
I-1
sI2136
I-1
sI2137
I-1
sI2138
I-1
sI2139
I-1
sI2140
I-1
sI2141
I-1
sI2142
I-1
sI2143
I-1
sI2144
I-1
sI2145
I-1
sI2146
I-1
sI2147
I-1
sI2148
I-1
sI2149
I-1
sI2150
I-1
sI2151
I-1
sI2152
I-1
sI2153
I-1
sI2154
I-1
sI2155
I-1
sI2156
I-1
sI2157
I-1
sI2158
I-1
sI2159
I-1
sI2160
I-1
sI2161
I-1
sI2162
I-1
sI2163
I-1
sI2164
I-1
sI2165
I-1
sI2166
I-1
sI2167
I-1
sI2168
I-1
sI2169
I-1
sI2170
I-1
sI2171
I-1
sI2172
I-1
sI2173
I-1
sI2174
I-1
sI2175
I-1
sI2176
I-1
sI2177
I-1
sI2178
I-1
sI2179
I-1
sI2180
I-1
sI2181
I-1
sI2182
I-1
sI2183
I-1
sI2184
I-1
sI2185
I-1
sI2186
I-1
sI2187
I-1
sI2188
I-1
sI2189
I-1
sI2190
I-1
sI2191
I-1
sI2192
I-1
sI2193
I-1
sI2194
I-1
sI2195
I-1
sI2196
I-1
sI2197
I-1
sI2198
I-1
sI2199
I-1
sI2200
I-1
sI2201
I-1
sI2202
I-1
sI2203
I-1
sI2204
I-1
sI2205
I-1
sI2206
I-1
sI2207
I-1
sI2208
I-1
sI2209
I-1
sI2210
I-1
sI2211
I-1
sI2212
I-1
sI2213
I-1
sI2214
I-1
sI2215
I-1
sI2216
I-1
sI2217
I-1
sI2218
I-1
sI2219
I-1
sI2220
I-1
sI2221
I-1
sI2222
I-1
sI2223
I-1
sI2224
I-1
sI2225
I-1
sI2226
I-1
sI2227
I-1
sI2228
I-1
sI2229
I-1
sI2230
I-1
sI2231
I-1
sI2232
I-1
sI2233
I-1
sI2234
I-1
sI2235
I-1
sI2236
I-1
sI2237
I-1
sI2238
I-1
sI2239
I-1
sI2240
I-1
sI2241
I-1
sI2242
I-1
sI2243
I-1
sI2244
I-1
sI2245
I-1
sI2246
I-1
sI2247
I-1
sI2248
I-1
sI2249
I-1
sI2250
I-1
sI2251
I-1
sI2252
I-1
sI2253
I-1
sI2254
I-1
sI2255
I-1
sI2256
I-1
sI2257
I-1
sI2258
I-1
sI2259
I-1
sI2260
I-1
sI2261
I-1
sI2262
I-1
sI2263
I-1
sI2264
I-1
sI2265
I-1
sI2266
I-1
sI2267
I-1
sI2268
I-1
sI2269
I-1
sI2270
I-1
sI2271
I-1
sI2272
I-1
sI2273
I-1
sI2274
I-1
sI2275
I-1
sI2276
I-1
sI2277
I-1
sI2278
I-1
sI2279
I-1
sI2280
I-1
sI2281
I-1
sI2282
I-1
sI2283
I-1
sI2284
I-1
sI2285
I-1
sI2286
I-1
sI2287
I-1
sI2288
I-1
sI2289
I-1
sI2290
I-1
sI2291
I-1
sI2292
I-1
sI2293
I-1
sI2294
I-1
sI2295
I-1
sI2296
I-1
sI2297
I-1
sI2298
I-1
sI2299
I-1
sI2300
I-1
sI2301
I-1
sI2302
I-1
sI2303
I-1
sI2304
I-1
sI2305
I-1
sI2306
I-1
sI2307
I-1
sI2308
I-1
sI2309
I-1
sI2310
I-1
sI2311
I-1
sI2312
I-1
sI2313
I-1
sI2314
I-1
sI2315
I-1
sI2316
I-1
sI2317
I-1
sI2318
I-1
sI2319
I-1
sI2320
I-1
sI2321
I-1
sI2322
I-1
sI2323
I-1
sI2324
I-1
sI2325
I-1
sI2326
I-1
sI2327
I-1
sI2328
I-1
sI2329
I-1
sI2330
I-1
sI2331
I-1
sI2332
I-1
sI2333
I-1
sI2334
I-1
sI2335
I-1
sI2336
I-1
sI2337
I-1
sI2338
I-1
sI2339
I-1
sI2340
I-1
sI2341
I-1
sI2342
I-1
sI2343
I-1
sI2344
I-1
sI2345
I-1
sI2346
I-1
sI2347
I-1
sI2348
I-1
sI2349
I-1
sI2350
I-1
sI2351
I-1
sI2352
I-1
sI2353
I-1
sI2354
I-1
sI2355
I-1
sI2356
I-1
sI2357
I-1
sI2358
I-1
sI2359
I-1
sI2360
I-1
sI2361
I-1
sI2362
I-1
sI2363
I-1
sI2364
I-1
sI2365
I-1
sI2366
I-1
sI2367
I-1
sI2368
I-1
sI2369
I-1
sI2370
I-1
sI2371
I-1
sI2372
I-1
sI2373
I-1
sI2374
I-1
sI2375
I-1
sI2376
I-1
sI2377
I-1
sI2378
I-1
sI2379
I-1
sI2380
I-1
sI2381
I-1
sI2382
I-1
sI2383
I-1
sI2384
I-1
sI2385
I-1
sI2386
I-1
sI2387
I-1
sI2388
I-1
sI2389
I-1
sI2390
I-1
sI2391
I-1
sI2392
I-1
sI2393
I-1
sI2394
I-1
sI2395
I-1
sI2396
I-1
sI2397
I-1
sI2398
I-1
sI2399
I-1
sI2400
I-1
sI2401
I-1
sI2402
I-1
sI2403
I-1
sI2404
I-1
sI2405
I-1
sI2406
I-1
sI2407
I-1
sI2408
I-1
sI2409
I-1
sI2410
I-1
sI2411
I-1
sI2412
I-1
sI2413
I-1
sI2414
I-1
sI2415
I-1
sI2416
I-1
sI2417
I-1
sI2418
I-1
sI2419
I-1
sI2420
I-1
sI2421
I-1
sI2422
I-1
sI2423
I-1
sI2424
I-1
sI2425
I-1
sI2426
I-1
sI2427
I-1
sI2428
I-1
sI2429
I-1
sI2430
I-1
sI2431
I-1
sI2432
I-1
sI2433
I-1
sI2434
I-1
sI2435
I-1
sI2436
I-1
sI2437
I-1
sI2438
I-1
sI2439
I-1
sI2440
I-1
sI2441
I-1
sI2442
I-1
sI2443
I-1
sI2444
I-1
sI2445
I-1
sI2446
I-1
sI2447
I-1
sI2448
I-1
sI2449
I-1
sI2450
I-1
sI2451
I-1
sI2452
I-1
sI2453
I-1
sI2454
I-1
sI2455
I-1
sI2456
I-1
sI2457
I-1
sI2458
I-1
sI2459
I-1
sI2460
I-1
sI2461
I-1
sI2462
I-1
sI2463
I-1
sI2464
I-1
sI2465
I-1
sI2466
I-1
sI2467
I-1
sI2468
I-1
sI2469
I-1
sI2470
I-1
sI2471
I-1
sI2472
I-1
sI2473
I-1
sI2474
I-1
sI2475
I-1
sI2476
I-1
sI2477
I-1
sI2478
I-1
sI2479
I-1
sI2480
I-1
sI2481
I-1
sI2482
I-1
sI2483
I-1
sI2484
I-1
sI2485
I-1
sI2486
I-1
sI2487
I-1
sI2488
I-1
sI2489
I-1
sI2490
I-1
sI2491
I-1
sI2492
I-1
sI2493
I-1
sI2494
I-1
sI2495
I-1
sI2496
I-1
sI2497
I-1
sI2498
I-1
sI2499
I-1
sI2500
I-1
sI2501
I-1
sI2502
I-1
sI2503
I-1
sI2504
I-1
sI2505
I-1
sI2506
I-1
sI2507
I-1
sI2508
I-1
sI2509
I-1
sI2510
I-1
sI2511
I-1
sI2512
I-1
sI2513
I-1
sI2514
I-1
sI2515
I-1
sI2516
I-1
sI2517
I-1
sI2518
I-1
sI2519
I-1
sI2520
I-1
sI2521
I-1
sI2522
I-1
sI2523
I-1
sI2524
I-1
sI2525
I-1
sI2526
I-1
sI2527
I-1
sI2528
I-1
sI2529
I-1
sI2530
I-1
sI2531
I-1
sI2532
I-1
sI2533
I-1
sI2534
I-1
sI2535
I-1
sI2536
I-1
sI2537
I-1
sI2538
I-1
sI2539
I-1
sI2540
I-1
sI2541
I-1
sI2542
I-1
sI2543
I-1
sI2544
I-1
sI2545
I-1
sI2546
I-1
sI2547
I-1
sI2548
I-1
sI2549
I-1
sI2550
I-1
sI2551
I-1
sI2552
I-1
sI2553
I-1
sI2554
I-1
sI2555
I-1
sI2556
I-1
sI2557
I-1
sI2558
I-1
sI2559
I-1
sI2560
I-1
sI2561
I-1
sI2562
I-1
sI2563
I-1
sI2564
I-1
sI2565
I-1
sI2566
I-1
sI2567
I-1
sI2568
I-1
sI2569
I-1
sI2570
I-1
sI2571
I-1
sI2572
I-1
sI2573
I-1
sI2574
I-1
sI2575
I-1
sI2576
I-1
sI2577
I-1
sI2578
I-1
sI2579
I-1
sI2580
I-1
sI2581
I-1
sI2582
I-1
sI2583
I-1
sI2584
I-1
sI2585
I-1
sI2586
I-1
sI2587
I-1
sI2588
I-1
sI2589
I-1
sI2590
I-1
sI2591
I-1
sI2592
I-1
sI2593
I-1
sI2594
I-1
sI2595
I-1
sI2596
I-1
sI2597
I-1
sI2598
I-1
sI2599
I-1
sI2600
I-1
sI2601
I-1
sI2602
I-1
sI2603
I-1
sI2604
I-1
sI2605
I-1
sI2606
I-1
sI2607
I-1
sI2608
I-1
sI2609
I-1
sI2610
I-1
sI2611
I-1
sI2612
I-1
sI2613
I-1
sI2614
I-1
sI2615
I-1
sI2616
I-1
sI2617
I-1
sI2618
I-1
sI2619
I-1
sI2620
I-1
sI2621
I-1
sI2622
I-1
sI2623
I-1
sI2624
I-1
sI2625
I-1
sI2626
I-1
sI2627
I-1
sI2628
I-1
sI2629
I-1
sI2630
I-1
sI2631
I-1
sI2632
I-1
sI2633
I-1
sI2634
I-1
sI2635
I-1
sI2636
I-1
sI2637
I-1
sI2638
I-1
sI2639
I-1
sI2640
I-1
sI2641
I-1
sI2642
I-1
sI2643
I-1
sI2644
I-1
sI2645
I-1
sI2646
I-1
sI2647
I-1
sI2648
I-1
sI2649
I-1
sI2650
I-1
sI2651
I-1
sI2652
I-1
sI2653
I-1
sI2654
I-1
sI2655
I-1
sI2656
I-1
sI2657
I-1
sI2658
I-1
sI2659
I-1
sI2660
I-1
sI2661
I-1
sI2662
I-1
sI2663
I-1
sI2664
I-1
sI2665
I-1
sI2666
I-1
sI2667
I-1
sI2668
I-1
sI2669
I-1
sI2670
I-1
sI2671
I-1
sI2672
I-1
sI2673
I-1
sI2674
I-1
sI2675
I-1
sI2676
I-1
sI2677
I-1
sI2678
I-1
sI2679
I-1
sI2680
I-1
sI2681
I-1
sI2682
I-1
sI2683
I-1
sI2684
I-1
sI2685
I-1
sI2686
I-1
sI2687
I-1
sI2688
I-1
sI2689
I-1
sI2690
I-1
sI2691
I-1
sI2692
I-1
sI2693
I-1
sI2694
I-1
sI2695
I-1
sI2696
I-1
sI2697
I-1
sI2698
I-1
sI2699
I-1
sI2700
I-1
sI2701
I-1
sI2702
I-1
sI2703
I-1
sI2704
I-1
sI2705
I-1
sI2706
I-1
sI2707
I-1
sI2708
I-1
sI2709
I-1
sI2710
I-1
sI2711
I-1
sI2712
I-1
sI2713
I-1
sI2714
I-1
sI2715
I-1
sI2716
I-1
sI2717
I-1
sI2718
I-1
sI2719
I-1
sI2720
I-1
sI2721
I-1
sI2722
I-1
sI2723
I-1
sI2724
I-1
sI2725
I-1
sI2726
I-1
sI2727
I-1
sI2728
I-1
sI2729
I-1
sI2730
I-1
sI2731
I-1
sI2732
I-1
sI2733
I-1
sI2734
I-1
sI2735
I-1
sI2736
I-1
sI2737
I-1
sI2738
I-1
sI2739
I-1
sI2740
I-1
sI2741
I-1
sI2742
I-1
sI2743
I-1
sI2744
I-1
sI2745
I-1
sI2746
I-1
sI2747
I-1
sI2748
I-1
sI2749
I-1
sI2750
I-1
sI2751
I-1
sI2752
I-1
sI2753
I-1
sI2754
I-1
sI2755
I-1
sI2756
I-1
sI2757
I-1
sI2758
I-1
sI2759
I-1
sI2760
I-1
sI2761
I-1
sI2762
I-1
sI2763
I-1
sI2764
I-1
sI2765
I-1
sI2766
I-1
sI2767
I-1
sI2768
I-1
sI2769
I-1
sI2770
I-1
sI2771
I-1
sI2772
I-1
sI2773
I-1
sI2774
I-1
sI2775
I-1
sI2776
I-1
sI2777
I-1
sI2778
I-1
sI2779
I-1
sI2780
I-1
sI2781
I-1
sI2782
I-1
sI2783
I-1
sI2784
I-1
sI2785
I-1
sI2786
I-1
sI2787
I-1
sI2788
I-1
sI2789
I-1
sI2790
I-1
sI2791
I-1
sI2792
I-1
sI2793
I-1
sI2794
I-1
sI2795
I-1
sI2796
I-1
sI2797
I-1
sI2798
I-1
sI2799
I-1
sI2800
I-1
sI2801
I-1
sI2802
I-1
sI2803
I-1
sI2804
I-1
sI2805
I-1
sI2806
I-1
sI2807
I-1
sI2808
I-1
sI2809
I-1
sI2810
I-1
sI2811
I-1
sI2812
I-1
sI2813
I-1
sI2814
I-1
sI2815
I-1
sI2816
I-1
sI2817
I-1
sI2818
I-1
sI2819
I-1
sI2820
I-1
sI2821
I-1
sI2822
I-1
sI2823
I-1
sI2824
I-1
sI2825
I-1
sI2826
I-1
sI2827
I-1
sI2828
I-1
sI2829
I-1
sI2830
I-1
sI2831
I-1
sI2832
I-1
sI2833
I-1
sI2834
I-1
sI2835
I-1
sI2836
I-1
sI2837
I-1
sI2838
I-1
sI2839
I-1
sI2840
I-1
sI2841
I-1
sI2842
I-1
sI2843
I-1
sI2844
I-1
sI2845
I-1
sI2846
I-1
sI2847
I-1
sI2848
I-1
sI2849
I-1
sI2850
I-1
sI2851
I-1
sI2852
I-1
sI2853
I-1
sI2854
I-1
sI2855
I-1
sI2856
I-1
sI2857
I-1
sI2858
I-1
sI2859
I-1
sI2860
I-1
sI2861
I-1
sI2862
I-1
sI2863
I-1
sI2864
I-1
sI2865
I-1
sI2866
I-1
sI2867
I-1
sI2868
I-1
sI2869
I-1
sI2870
I-1
sI2871
I-1
sI2872
I-1
sI2873
I-1
sI2874
I-1
sI2875
I-1
sI2876
I-1
sI2877
I-1
sI2878
I-1
sI2879
I-1
sI2880
I-1
sI2881
I-1
sI2882
I-1
sI2883
I-1
sI2884
I-1
sI2885
I-1
sI2886
I-1
sI2887
I-1
sI2888
I-1
sI2889
I-1
sI2890
I-1
sI2891
I-1
sI2892
I-1
sI2893
I-1
sI2894
I-1
sI2895
I-1
sI2896
I-1
sI2897
I-1
sI2898
I-1
sI2899
I-1
sI2900
I-1
sI2901
I-1
sI2902
I-1
sI2903
I-1
sI2904
I-1
sI2905
I-1
sI2906
I-1
sI2907
I-1
sI2908
I-1
sI2909
I-1
sI2910
I-1
sI2911
I-1
sI2912
I-1
sI2913
I-1
sI2914
I-1
sI2915
I-1
sI2916
I-1
sI2917
I-1
sI2918
I-1
sI2919
I-1
sI2920
I-1
sI2921
I-1
sI2922
I-1
sI2923
I-1
sI2924
I-1
sI2925
I-1
sI2926
I-1
sI2927
I-1
sI2928
I-1
sI2929
I-1
sI2930
I-1
sI2931
I-1
sI2932
I-1
sI2933
I-1
sI2934
I-1
sI2935
I-1
sI2936
I-1
sI2937
I-1
sI2938
I-1
sI2939
I-1
sI2940
I-1
sI2941
I-1
sI2942
I-1
sI2943
I-1
sI2944
I-1
sI2945
I-1
sI2946
I-1
sI2947
I-1
sI2948
I-1
sI2949
I-1
sI2950
I-1
sI2951
I-1
sI2952
I-1
sI2953
I-1
sI2954
I-1
sI2955
I-1
sI2956
I-1
sI2957
I-1
sI2958
I-1
sI2959
I-1
sI2960
I-1
sI2961
I-1
sI2962
I-1
sI2963
I-1
sI2964
I-1
sI2965
I-1
sI2966
I-1
sI2967
I-1
sI2968
I-1
sI2969
I-1
sI2970
I-1
sI2971
I-1
sI2972
I-1
sI2973
I-1
sI2974
I-1
sI2975
I-1
sI2976
I-1
sI2977
I-1
sI2978
I-1
sI2979
I-1
sI2980
I-1
sI2981
I-1
sI2982
I-1
sI2983
I-1
sI2984
I-1
sI2985
I-1
sI2986
I-1
sI2987
I-1
sI2988
I-1
sI2989
I-1
sI2990
I-1
sI2991
I-1
sI2992
I-1
sI2993
I-1
sI2994
I-1
sI2995
I-1
sI2996
I-1
sI2997
I-1
sI2998
I-1
sI2999
I-1
sI3000
I-1
sI3001
I-1
sI3002
I-1
sI3003
I-1
sI3004
I-1
sI3005
I-1
sI3006
I-1
sI3007
I-1
sI3008
I-1
sI3009
I-1
sI3010
I-1
sI3011
I-1
sI3012
I-1
sI3013
I-1
sI3014
I-1
sI3015
I-1
sI3016
I-1
sI3017
I-1
sI3018
I-1
sI3019
I-1
sI3020
I-1
sI3021
I-1
sI3022
I-1
sI3023
I-1
sI3024
I-1
sI3025
I-1
sI3026
I-1
sI3027
I-1
sI3028
I-1
sI3029
I-1
sI3030
I-1
sI3031
I-1
sI3032
I-1
sI3033
I-1
sI3034
I-1
sI3035
I-1
sI3036
I-1
sI3037
I-1
sI3038
I-1
sI3039
I-1
sI3040
I-1
sI3041
I-1
sI3042
I-1
sI3043
I-1
sI3044
I-1
sI3045
I-1
sI3046
I-1
sI3047
I-1
sI3048
I-1
sI3049
I-1
sI3050
I-1
sI3051
I-1
sI3052
I-1
sI3053
I-1
sI3054
I-1
sI3055
I-1
sI3056
I-1
sI3057
I-1
sI3058
I-1
sI3059
I-1
sI3060
I-1
sI3061
I-1
sI3062
I-1
sI3063
I-1
sI3064
I-1
sI3065
I-1
sI3066
I-1
sI3067
I-1
sI3068
I-1
sI3069
I-1
sI3070
I-1
sI3071
I-1
sI3072
I-1
sI3073
I-1
sI3074
I-1
sI3075
I-1
sI3076
I-1
sI3077
I-1
sI3078
I-1
sI3079
I-1
sI3080
I-1
sI3081
I-1
sI3082
I-1
sI3083
I-1
sI3084
I-1
sI3085
I-1
sI3086
I-1
sI3087
I-1
sI3088
I-1
sI3089
I-1
sI3090
I-1
sI3091
I-1
sI3092
I-1
sI3093
I-1
sI3094
I-1
sI3095
I-1
sI3096
I-1
sI3097
I-1
sI3098
I-1
sI3099
I-1
sI3100
I-1
sI3101
I-1
sI3102
I-1
sI3103
I-1
sI3104
I-1
sI3105
I-1
sI3106
I-1
sI3107
I-1
sI3108
I-1
sI3109
I-1
sI3110
I-1
sI3111
I-1
sI3112
I-1
sI3113
I-1
sI3114
I-1
sI3115
I-1
sI3116
I-1
sI3117
I-1
sI3118
I-1
sI3119
I-1
sI3120
I-1
sI3121
I-1
sI3122
I-1
sI3123
I-1
sI3124
I-1
sI3125
I-1
sI3126
I-1
sI3127
I-1
sI3128
I-1
sI3129
I-1
sI3130
I-1
sI3131
I-1
sI3132
I-1
sI3133
I-1
sI3134
I-1
sI3135
I-1
sI3136
I-1
sI3137
I-1
sI3138
I-1
sI3139
I-1
sI3140
I-1
sI3141
I-1
sI3142
I-1
sI3143
I-1
sI3144
I-1
sI3145
I-1
sI3146
I-1
sI3147
I-1
sI3148
I-1
sI3149
I-1
sI3150
I-1
sI3151
I-1
sI3152
I-1
sI3153
I-1
sI3154
I-1
sI3155
I-1
sI3156
I-1
sI3157
I-1
sI3158
I-1
sI3159
I-1
sI3160
I-1
sI3161
I-1
sI3162
I-1
sI3163
I-1
sI3164
I-1
sI3165
I-1
sI3166
I-1
sI3167
I-1
sI3168
I-1
sI3169
I-1
sI3170
I-1
sI3171
I-1
sI3172
I-1
sI3173
I-1
sI3174
I-1
sI3175
I-1
sI3176
I-1
sI3177
I-1
sI3178
I-1
sI3179
I-1
sI3180
I-1
sI3181
I-1
sI3182
I-1
sI3183
I-1
sI3184
I-1
sI3185
I-1
sI3186
I-1
sI3187
I-1
sI3188
I-1
sI3189
I-1
sI3190
I-1
sI3191
I-1
sI3192
I-1
sI3193
I-1
sI3194
I-1
sI3195
I-1
sI3196
I-1
sI3197
I-1
sI3198
I-1
sI3199
I-1
sI3200
I-1
sI3201
I-1
sI3202
I-1
sI3203
I-1
sI3204
I-1
sI3205
I-1
sI3206
I-1
sI3207
I-1
sI3208
I-1
sI3209
I-1
sI3210
I-1
sI3211
I-1
sI3212
I-1
sI3213
I-1
sI3214
I-1
sI3215
I-1
sI3216
I-1
sI3217
I-1
sI3218
I-1
sI3219
I-1
sI3220
I-1
sI3221
I-1
sI3222
I-1
sI3223
I-1
sI3224
I-1
sI3225
I-1
sI3226
I-1
sI3227
I-1
sI3228
I-1
sI3229
I-1
sI3230
I-1
sI3231
I-1
sI3232
I-1
sI3233
I-1
sI3234
I-1
sI3235
I-1
sI3236
I-1
sI3237
I-1
sI3238
I-1
sI3239
I-1
sI3240
I-1
sI3241
I-1
sI3242
I-1
sI3243
I-1
sI3244
I-1
sI3245
I-1
sI3246
I-1
sI3247
I-1
sI3248
I-1
sI3249
I-1
sI3250
I-1
sI3251
I-1
sI3252
I-1
sI3253
I-1
sI3254
I-1
sI3255
I-1
sI3256
I-1
sI3257
I-1
sI3258
I-1
sI3259
I-1
sI3260
I-1
sI3261
I-1
sI3262
I-1
sI3263
I-1
sI3264
I-1
sI3265
I-1
sI3266
I-1
sI3267
I-1
sI3268
I-1
sI3269
I-1
sI3270
I-1
sI3271
I-1
sI3272
I-1
sI3273
I-1
sI3274
I-1
sI3275
I-1
sI3276
I-1
sI3277
I-1
sI3278
I-1
sI3279
I-1
sI3280
I-1
sI3281
I-1
sI3282
I-1
sI3283
I-1
sI3284
I-1
sI3285
I-1
sI3286
I-1
sI3287
I-1
sI3288
I-1
sI3289
I-1
sI3290
I-1
sI3291
I-1
sI3292
I-1
sI3293
I-1
sI3294
I-1
sI3295
I-1
sI3296
I-1
sI3297
I-1
sI3298
I-1
sI3299
I-1
sI3300
I-1
sI3301
I-1
sI3302
I-1
sI3303
I-1
sI3304
I-1
sI3305
I-1
sI3306
I-1
sI3307
I-1
sI3308
I-1
sI3309
I-1
sI3310
I-1
sI3311
I-1
sI3312
I-1
sI3313
I-1
sI3314
I-1
sI3315
I-1
sI3316
I-1
sI3317
I-1
sI3318
I-1
sI3319
I-1
sI3320
I-1
sI3321
I-1
sI3322
I-1
sI3323
I-1
sI3324
I-1
sI3325
I-1
sI3326
I-1
sI3327
I-1
sI3328
I-1
sI3329
I-1
sI3330
I-1
sI3331
I-1
sI3332
I-1
sI3333
I-1
sI3334
I-1
sI3335
I-1
sI3336
I-1
sI3337
I-1
sI3338
I-1
sI3339
I-1
sI3340
I-1
sI3341
I-1
sI3342
I-1
sI3343
I-1
sI3344
I-1
sI3345
I-1
sI3346
I-1
sI3347
I-1
sI3348
I-1
sI3349
I-1
sI3350
I-1
sI3351
I-1
sI3352
I-1
sI3353
I-1
sI3354
I-1
sI3355
I-1
sI3356
I-1
sI3357
I-1
sI3358
I-1
sI3359
I-1
sI3360
I-1
sI3361
I-1
sI3362
I-1
sI3363
I-1
sI3364
I-1
sI3365
I-1
sI3366
I-1
sI3367
I-1
sI3368
I-1
sI3369
I-1
sI3370
I-1
sI3371
I-1
sI3372
I-1
sI3373
I-1
sI3374
I-1
sI3375
I-1
sI3376
I-1
sI3377
I-1
sI3378
I-1
sI3379
I-1
sI3380
I-1
sI3381
I-1
sI3382
I-1
sI3383
I-1
sI3384
I-1
sI3385
I-1
sI3386
I-1
sI3387
I-1
sI3388
I-1
sI3389
I-1
sI3390
I-1
sI3391
I-1
sI3392
I-1
sI3393
I-1
sI3394
I-1
sI3395
I-1
sI3396
I-1
sI3397
I-1
sI3398
I-1
sI3399
I-1
sI3400
I-1
sI3401
I-1
sI3402
I-1
sI3403
I-1
sI3404
I-1
sI3405
I-1
sI3406
I-1
sI3407
I-1
sI3408
I-1
sI3409
I-1
sI3410
I-1
sI3411
I-1
sI3412
I-1
sI3413
I-1
sI3414
I-1
sI3415
I-1
sI3416
I-1
sI3417
I-1
sI3418
I-1
sI3419
I-1
sI3420
I-1
sI3421
I-1
sI3422
I-1
sI3423
I-1
sI3424
I-1
sI3425
I-1
sI3426
I-1
sI3427
I-1
sI3428
I-1
sI3429
I-1
sI3430
I-1
sI3431
I-1
sI3432
I-1
sI3433
I-1
sI3434
I-1
sI3435
I-1
sI3436
I-1
sI3437
I-1
sI3438
I-1
sI3439
I-1
sI3440
I-1
sI3441
I-1
sI3442
I-1
sI3443
I-1
sI3444
I-1
sI3445
I-1
sI3446
I-1
sI3447
I-1
sI3448
I-1
sI3449
I-1
sI3450
I-1
sI3451
I-1
sI3452
I-1
sI3453
I-1
sI3454
I-1
sI3455
I-1
sI3456
I-1
sI3457
I-1
sI3458
I-1
sI3459
I-1
sI3460
I-1
sI3461
I-1
sI3462
I-1
sI3463
I-1
sI3464
I-1
sI3465
I-1
sI3466
I-1
sI3467
I-1
sI3468
I-1
sI3469
I-1
sI3470
I-1
sI3471
I-1
sI3472
I-1
sI3473
I-1
sI3474
I-1
sI3475
I-1
sI3476
I-1
sI3477
I-1
sI3478
I-1
sI3479
I-1
sI3480
I-1
sI3481
I-1
sI3482
I-1
sI3483
I-1
sI3484
I-1
sI3485
I-1
sI3486
I-1
sI3487
I-1
sI3488
I-1
sI3489
I-1
sI3490
I-1
sI3491
I-1
sI3492
I-1
sI3493
I-1
sI3494
I-1
sI3495
I-1
sI3496
I-1
sI3497
I-1
sI3498
I-1
sI3499
I-1
sI3500
I-1
sI3501
I-1
sI3502
I-1
sI3503
I-1
sI3504
I-1
sI3505
I-1
sI3506
I-1
sI3507
I-1
sI3508
I-1
sI3509
I-1
sI3510
I-1
sI3511
I-1
sI3512
I-1
sI3513
I-1
sI3514
I-1
sI3515
I-1
sI3516
I-1
sI3517
I-1
sI3518
I-1
sI3519
I-1
sI3520
I-1
sI3521
I-1
sI3522
I-1
sI3523
I-1
sI3524
I-1
sI3525
I-1
sI3526
I-1
sI3527
I-1
sI3528
I-1
sI3529
I-1
sI3530
I-1
sI3531
I-1
sI3532
I-1
sI3533
I-1
sI3534
I-1
sI3535
I-1
sI3536
I-1
sI3537
I-1
sI3538
I-1
sI3539
I-1
sI3540
I-1
sI3541
I-1
sI3542
I-1
sI3543
I-1
sI3544
I-1
sI3545
I-1
sI3546
I-1
sI3547
I-1
sI3548
I-1
sI3549
I-1
sI3550
I-1
sI3551
I-1
sI3552
I-1
sI3553
I-1
sI3554
I-1
sI3555
I-1
sI3556
I-1
sI3557
I-1
sI3558
I-1
sI3559
I-1
sI3560
I-1
sI3561
I-1
sI3562
I-1
sI3563
I-1
sI3564
I-1
sI3565
I-1
sI3566
I-1
sI3567
I-1
sI3568
I-1
sI3569
I-1
sI3570
I-1
sI3571
I-1
sI3572
I-1
sI3573
I-1
sI3574
I-1
sI3575
I-1
sI3576
I-1
sI3577
I-1
sI3578
I-1
sI3579
I-1
sI3580
I-1
sI3581
I-1
sI3582
I-1
sI3583
I-1
sI3584
I-1
sI3585
I-1
sI3586
I-1
sI3587
I-1
sI3588
I-1
sI3589
I-1
sI3590
I-1
sI3591
I-1
sI3592
I-1
sI3593
I-1
sI3594
I-1
sI3595
I-1
sI3596
I-1
sI3597
I-1
sI3598
I-1
sI3599
I-1
sI3600
I-1
sI3601
I-1
sI3602
I-1
sI3603
I-1
sI3604
I-1
sI3605
I-1
sI3606
I-1
sI3607
I-1
sI3608
I-1
sI3609
I-1
sI3610
I-1
sI3611
I-1
sI3612
I-1
sI3613
I-1
sI3614
I-1
sI3615
I-1
sI3616
I-1
sI3617
I-1
sI3618
I-1
sI3619
I-1
sI3620
I-1
sI3621
I-1
sI3622
I-1
sI3623
I-1
sI3624
I-1
sI3625
I-1
sI3626
I-1
sI3627
I-1
sI3628
I-1
sI3629
I-1
sI3630
I-1
sI3631
I-1
sI3632
I-1
sI3633
I-1
sI3634
I-1
sI3635
I-1
sI3636
I-1
sI3637
I-1
sI3638
I-1
sI3639
I-1
sI3640
I-1
sI3641
I-1
sI3642
I-1
sI3643
I-1
sI3644
I-1
sI3645
I-1
sI3646
I-1
sI3647
I-1
sI3648
I-1
sI3649
I-1
sI3650
I-1
sI3651
I-1
sI3652
I-1
sI3653
I-1
sI3654
I-1
sI3655
I-1
sI3656
I-1
sI3657
I-1
sI3658
I-1
sI3659
I-1
sI3660
I15228
sI3661
I-1
sI3662
I-1
sI3663
I-1
sI3664
I-1
sI3665
I-1
sI3666
I-1
sI3667
I-1
sI3668
I-1
sI3669
I-1
sI3670
I-1
sI3671
I-1
sI3672
I-1
sI3673
I-1
sI3674
I-1
sI3675
I-1
sI3676
I-1
sI3677
I-1
sI3678
I-1
sI3679
I-1
sI3680
I-1
sI3681
I-1
sI3682
I-1
sI3683
I-1
sI3684
I-1
sI3685
I-1
sI3686
I-1
sI3687
I-1
sI3688
I-1
sI3689
I-1
sI3690
I-1
sI3691
I14769
sI3692
I-1
sI3693
I-1
sI3694
I-1
sI3695
I-1
sI3696
I-1
sI3697
I-1
sI3698
I-1
sI3699
I-1
sI3700
I-1
sI3701
I-1
sI3702
I-1
sI3703
I-1
sI3704
I-1
sI3705
I-1
sI3706
I-1
sI3707
I-1
sI3708
I-1
sI3709
I-1
sI3710
I-1
sI3711
I-1
sI3712
I-1
sI3713
I-1
sI3714
I-1
sI3715
I-1
sI3716
I-1
sI3717
I-1
sI3718
I-1
sI3719
I-1
sI3720
I-1
sI3721
I-1
sI3722
I-1
sI3723
I-1
sI3724
I-1
sI3725
I-1
sI3726
I-1
sI3727
I-1
sI3728
I-1
sI3729
I-1
sI3730
I-1
sI3731
I-1
sI3732
I-1
sI3733
I-1
sI3734
I-1
sI3735
I-1
sI3736
I-1
sI3737
I-1
sI3738
I15009
sI3739
I-1
sI3740
I-1
sI3741
I-1
sI3742
I-1
sI3743
I-1
sI3744
I-1
sI3745
I-1
sI3746
I-1
sI3747
I-1
sI3748
I-1
sI3749
I-1
sI3750
I-1
sI3751
I-1
sI3752
I-1
sI3753
I-1
sI3754
I-1
sI3755
I-1
sI3756
I-1
sI3757
I-1
sI3758
I-1
sI3759
I-1
sI3760
I-1
sI3761
I-1
sI3762
I-1
sI3763
I-1
sI3764
I-1
sI3765
I-1
sI3766
I-1
sI3767
I-1
sI3768
I-1
sI3769
I-1
sI3770
I-1
sI3771
I-1
sI3772
I-1
sI3773
I-1
sI3774
I-1
sI3775
I-1
sI3776
I-1
sI3777
I-1
sI3778
I-1
sI3779
I14615
sI3780
I-1
sI3781
I-1
sI3782
I-1
sI3783
I-1
sI3784
I-1
sI3785
I-1
sI3786
I15148
sI3787
I-1
sI3788
I-1
sI3789
I-1
sI3790
I-1
sI3791
I-1
sI3792
I-1
sI3793
I-1
sI3794
I-1
sI3795
I-1
sI3796
I-1
sI3797
I14744
sI3798
I-1
sI3799
I-1
sI3800
I-1
sI3801
I-1
sI3802
I14735
sI3803
I15073
sI3804
I-1
sI3805
I-1
sI3806
I-1
sI3807
I14897
sI3808
I-1
sI3809
I-1
sI3810
I-1
sI3811
I15040
sI3812
I14858
sI3813
I-1
sI3814
I-1
sI3815
I-1
sI3816
I-1
sI3817
I-1
sI3818
I-1
sI3819
I14640
sI3820
I-1
sI3821
I-1
sI3822
I-1
sI3823
I-1
sI3824
I-1
sI3825
I14897
sI3826
I-1
sI3827
I-1
sI3828
I14966
sI3829
I14866
sI3830
I-1
sI3831
I-1
sI3832
I-1
sI3833
I-1
sI3834
I-1
sI3835
I-1
sI3836
I-1
sI3837
I-1
sI3838
I-1
sI3839
I-1
sI3840
I-1
sI3841
I14968
sI3842
I-1
sI3843
I-1
sI3844
I14764
sI3845
I15022
sI3846
I-1
sI3847
I-1
sI3848
I15015
sI3849
I-1
sI3850
I-1
sI3851
I-1
sI3852
I-1
sI3853
I14975
sI3854
I-1
sI3855
I-1
sI3856
I-1
sI3857
I-1
sI3858
I-1
sI3859
I-1
sI3860
I-1
sI3861
I14498
sI3862
I-1
sI3863
I-1
sI3864
I-1
sI3865
I-1
sI3866
I-1
sI3867
I-1
sI3868
I14775
sI3869
I-1
sI3870
I-1
sI3871
I-1
sI3872
I-1
sI3873
I-1
sI3874
I-1
sI3875
I-1
sI3876
I-1
sI3877
I14708
sI3878
I-1
sI3879
I-1
sI3880
I-1
sI3881
I-1
sI3882
I-1
sI3883
I-1
sI3884
I-1
sI3885
I-1
sI3886
I-1
sI3887
I14665
sI3888
I14685
sI3889
I-1
sI3890
I-1
sI3891
I14771
sI3892
I14786
sI3893
I-1
sI3894
I-1
sI3895
I15029
sI3896
I14909
sI3897
I14437
sI3898
I13957
sI3899
I14812
sI3900
I14601
sI3901
I-1
sI3902
I-1
sI3903
I-1
sI3904
I14574
sI3905
I-1
sI3906
I14222
sI3907
I14577
sI3908
I14098
sI3909
I14733
sI3910
I-1
sI3911
I14826
sI3912
I14612
sI3913
I-1
sI3914
I-1
sI3915
I-1
sI3916
I14720
sI3917
I-1
sI3918
I14653
sI3919
I14684
sI3920
I14318
sI3921
I-1
sI3922
I13417
sI3923
I14505
sI3924
I14453
sI3925
I-1
sI3926
I14759
sI3927
I14521
sI3928
I-1
sI3929
I14283
sI3930
I-1
sI3931
I-1
sI3932
I14605
sI3933
I14590
sI3934
I-1
sI3935
I-1
sI3936
I14255
sI3937
I14568
sI3938
I14454
sI3939
I-1
sI3940
I-1
sI3941
I14123
sI3942
I-1
sI3943
I-1
sI3944
I14229
sI3945
I13345
sI3946
I-1
sI3947
I14880
sI3948
I-1
sI3949
I14679
sI3950
I14399
sI3951
I14782
sI3952
I-1
sI3953
I14646
sI3954
I14815
sI3955
I14456
sI3956
I14269
sI3957
I14602
sI3958
I13926
sI3959
I-1
sI3960
I-1
sI3961
I14203
sI3962
I14532
sI3963
I-1
sI3964
I-1
sI3965
I14686
sI3966
I14168
sI3967
I14436
sI3968
I14496
sI3969
I14743
sI3970
I-1
sI3971
I-1
sI3972
I-1
sI3973
I14324
sI3974
I14525
sI3975
I-1
sI3976
I14134
sI3977
I14700
sI3978
I14150
sI3979
I14287
sI3980
I-1
sI3981
I14371
sI3982
I14282
sI3983
I14743
sI3984
I14456
sI3985
I13926
sI3986
I14562
sI3987
I-1
sI3988
I-1
sI3989
I14401
sI3990
I-1
sI3991
I-1
sI3992
I14143
sI3993
I14574
sI3994
I14677
sI3995
I14297
sI3996
I14194
sI3997
I-1
sI3998
I14721
sI3999
I13750
sI4000
I14592
sI4001
I14615
sI4002
I-1
sI4003
I14307
sI4004
I14474
sI4005
I14635
sI4006
I13906
sI4007
I14363
sI4008
I13915
sI4009
I-1
sI4010
I14423
sI4011
I13765
sI4012
I13973
sI4013
I13835
sI4014
I-1
sI4015
I14489
sI4016
I14024
sI4017
I14447
sI4018
I14577
sI4019
I14360
sI4020
I-1
sI4021
I-1
sI4022
I13905
sI4023
I14484
sI4024
I14323
sI4025
I14010
sI4026
I14222
sI4027
I14223
sI4028
I14317
sI4029
I14069
sI4030
I14180
sI4031
I-1
sI4032
I14251
sI4033
I14443
sI4034
I14167
sI4035
I14494
sI4036
I14021
sI4037
I14005
sI4038
I14657
sI4039
I14524
sI4040
I14243
sI4041
I14096
sI4042
I-1
sI4043
I-1
sI4044
I14484
sI4045
I14571
sI4046
I14473
sI4047
I13753
sI4048
I13742
sI4049
I14404
sI4050
I13888
sI4051
I14189
sI4052
I14163
sI4053
I14271
sI4054
I14217
sI4055
I14175
sI4056
I14197
sI4057
I14591
sI4058
I14061
sI4059
I14019
sI4060
I14614
sI4061
I14579
sI4062
I14048
sI4063
I13417
sI4064
I14103
sI4065
I14339
sI4066
I14340
sI4067
I14186
sI4068
I14300
sI4069
I14629
sI4070
I14309
sI4071
I13354
sI4072
I14131
sI4073
I13592
sI4074
I13668
sI4075
I13951
sI4076
I13426
sI4077
I14243
sI4078
I14292
sI4079
I14000
sI4080
I14467
sI4081
I14670
sI4082
I13898
sI4083
I14132
sI4084
I13530
sI4085
I13766
sI4086
I13675
sI4087
I13842
sI4088
I13773
sI4089
I14271
sI4090
I13702
sI4091
I14143
sI4092
I13969
sI4093
I14420
sI4094
I14351
sI4095
I14126
sI4096
I14702
sI4097
I14494
sI4098
I14169
sI4099
I14003
sI4100
I14595
sI4101
I14106
sI4102
I14356
sI4103
I14058
sI4104
I13989
sI4105
I13868
sI4106
I14615
sI4107
I13802
sI4108
I14087
sI4109
I13668
sI4110
I13884
sI4111
I13722
sI4112
I13807
sI4113
I14043
sI4114
I13952
sI4115
I14345
sI4116
I13184
sI4117
I13804
sI4118
I13904
sI4119
I14202
sI4120
I13965
sI4121
I-1
sI4122
I13671
sI4123
I14039
sI4124
I13772
sI4125
I14268
sI4126
I14412
sI4127
I14248
sI4128
I14147
sI4129
I14303
sI4130
I13293
sI4131
I14008
sI4132
I13576
sI4133
I13849
sI4134
I13699
sI4135
I13684
sI4136
I13929
sI4137
I13759
sI4138
I14056
sI4139
I13637
sI4140
I14260
sI4141
I14185
sI4142
I13501
sI4143
I13820
sI4144
I14118
sI4145
I13869
sI4146
I13513
sI4147
I13724
sI4148
I14143
sI4149
I13169
sI4150
I13576
sI4151
I13994
sI4152
I13790
sI4153
I13935
sI4154
I13957
sI4155
I13465
sI4156
I13806
sI4157
I13145
sI4158
I14182
sI4159
I14045
sI4160
I13737
sI4161
I14571
sI4162
I13629
sI4163
I13462
sI4164
I14484
sI4165
I13205
sI4166
I13798
sI4167
I13041
sI4168
I13498
sI4169
I13526
sI4170
I13726
sI4171
I13867
sI4172
I13984
sI4173
I14071
sI4174
I13981
sI4175
I14054
sI4176
I13044
sI4177
I13900
sI4178
I13357
sI4179
I13584
sI4180
I13755
sI4181
I13952
sI4182
I13900
sI4183
I13641
sI4184
I13856
sI4185
I13284
sI4186
I13468
sI4187
I13248
sI4188
I13589
sI4189
I14100
sI4190
I13628
sI4191
I13803
sI4192
I13958
sI4193
I14107
sI4194
I13863
sI4195
I13911
sI4196
I13529
sI4197
I13820
sI4198
I13472
sI4199
I13803
sI4200
I13638
sI4201
I13520
sI4202
I12997
sI4203
I13898
sI4204
I12854
sI4205
I13759
sI4206
I13533
sI4207
I13955
sI4208
I13235
sI4209
I13414
sI4210
I13202
sI4211
I13393
sI4212
I13422
sI4213
I13465
sI4214
I13316
sI4215
I13675
sI4216
I13745
sI4217
I13883
sI4218
I13455
sI4219
I13420
sI4220
I13360
sI4221
I13671
sI4222
I13128
sI4223
I13115
sI4224
I13154
sI4225
I13298
sI4226
I13785
sI4227
I13400
sI4228
I13406
sI4229
I13770
sI4230
I13470
sI4231
I13281
sI4232
I13706
sI4233
I13959
sI4234
I13280
sI4235
I13761
sI4236
I13613
sI4237
I13360
sI4238
I12813
sI4239
I12602
sI4240
I14141
sI4241
I12902
sI4242
I13744
sI4243
I13049
sI4244
I12683
sI4245
I13672
sI4246
I12956
sI4247
I12987
sI4248
I13605
sI4249
I13313
sI4250
I12958
sI4251
I13243
sI4252
I12379
sI4253
I13179
sI4254
I13058
sI4255
I13478
sI4256
I13441
sI4257
I13645
sI4258
I13472
sI4259
I13350
sI4260
I13394
sI4261
I13547
sI4262
I13652
sI4263
I13492
sI4264
I13011
sI4265
I13720
sI4266
I13124
sI4267
I13468
sI4268
I12971
sI4269
I13568
sI4270
I13586
sI4271
I13326
sI4272
I13666
sI4273
I13220
sI4274
I13568
sI4275
I13152
sI4276
I13281
sI4277
I13352
sI4278
I12651
sI4279
I13767
sI4280
I12778
sI4281
I12973
sI4282
I13111
sI4283
I13346
sI4284
I13118
sI4285
I13128
sI4286
I13132
sI4287
I13296
sI4288
I13459
sI4289
I13387
sI4290
I13505
sI4291
I12503
sI4292
I13452
sI4293
I13512
sI4294
I13348
sI4295
I13476
sI4296
I13070
sI4297
I12788
sI4298
I13270
sI4299
I12606
sI4300
I12818
sI4301
I12666
sI4302
I13378
sI4303
I12635
sI4304
I13004
sI4305
I13743
sI4306
I12899
sI4307
I13387
sI4308
I12839
sI4309
I13007
sI4310
I13554
sI4311
I13427
sI4312
I12251
sI4313
I12929
sI4314
I13149
sI4315
I13535
sI4316
I12868
sI4317
I12500
sI4318
I13205
sI4319
I12961
sI4320
I12654
sI4321
I13277
sI4322
I13252
sI4323
I12518
sI4324
I13597
sI4325
I12480
sI4326
I13110
sI4327
I13011
sI4328
I13130
sI4329
I12942
sI4330
I13379
sI4331
I13072
sI4332
I12700
sI4333
I12247
sI4334
I12126
sI4335
I13093
sI4336
I13032
sI4337
I12923
sI4338
I12722
sI4339
I12689
sI4340
I12609
sI4341
I13432
sI4342
I12771
sI4343
I12796
sI4344
I12371
sI4345
I13005
sI4346
I13363
sI4347
I12865
sI4348
I12732
sI4349
I13084
sI4350
I12198
sI4351
I12902
sI4352
I12964
sI4353
I12988
sI4354
I13211
sI4355
I12975
sI4356
I12797
sI4357
I12839
sI4358
I13432
sI4359
I13389
sI4360
I12793
sI4361
I12825
sI4362
I12887
sI4363
I12870
sI4364
I12833
sI4365
I12982
sI4366
I12658
sI4367
I12613
sI4368
I13081
sI4369
I12602
sI4370
I12275
sI4371
I12625
sI4372
I12972
sI4373
I12724
sI4374
I13090
sI4375
I12786
sI4376
I12861
sI4377
I13338
sI4378
I12554
sI4379
I12776
sI4380
I12741
sI4381
I12708
sI4382
I12702
sI4383
I12572
sI4384
I12793
sI4385
I13452
sI4386
I13236
sI4387
I13113
sI4388
I12864
sI4389
I12289
sI4390
I12635
sI4391
I12445
sI4392
I12679
sI4393
I12454
sI4394
I12531
sI4395
I12376
sI4396
I12360
sI4397
I12611
sI4398
I13279
sI4399
I12733
sI4400
I12963
sI4401
I12791
sI4402
I12534
sI4403
I13020
sI4404
I12917
sI4405
I12736
sI4406
I12835
sI4407
I12861
sI4408
I13306
sI4409
I12204
sI4410
I11951
sI4411
I12949
sI4412
I12092
sI4413
I12543
sI4414
I12705
sI4415
I12387
sI4416
I13150
sI4417
I12540
sI4418
I13278
sI4419
I12111
sI4420
I12450
sI4421
I12956
sI4422
I12721
sI4423
I13004
sI4424
I12587
sI4425
I12878
sI4426
I12914
sI4427
I13198
sI4428
I13112
sI4429
I12510
sI4430
I12357
sI4431
I12276
sI4432
I12909
sI4433
I12789
sI4434
I12315
sI4435
I12575
sI4436
I12863
sI4437
I12312
sI4438
I13118
sI4439
I12948
sI4440
I12770
sI4441
I12823
sI4442
I12585
sI4443
I12555
sI4444
I12454
sI4445
I12730
sI4446
I12471
sI4447
I12693
sI4448
I12246
sI4449
I12703
sI4450
I12652
sI4451
I12335
sI4452
I12670
sI4453
I12480
sI4454
I12368
sI4455
I12511
sI4456
I12053
sI4457
I11865
sI4458
I12512
sI4459
I12791
sI4460
I12233
sI4461
I12792
sI4462
I12850
sI4463
I12115
sI4464
I12718
sI4465
I12360
sI4466
I12075
sI4467
I12188
sI4468
I12693
sI4469
I12927
sI4470
I12971
sI4471
I12006
sI4472
I12452
sI4473
I12341
sI4474
I12832
sI4475
I12436
sI4476
I12862
sI4477
I12484
sI4478
I12455
sI4479
I12360
sI4480
I12268
sI4481
I12531
sI4482
I13184
sI4483
I12671
sI4484
I12606
sI4485
I13240
sI4486
I12579
sI4487
I12085
sI4488
I12171
sI4489
I12598
sI4490
I12185
sI4491
I11459
sI4492
I12455
sI4493
I12466
sI4494
I12192
sI4495
I12881
sI4496
I12165
sI4497
I12684
sI4498
I12305
sI4499
I12728
sI4500
I12749
sI4501
I12395
sI4502
I12167
sI4503
I12647
sI4504
I12891
sI4505
I12635
sI4506
I12955
sI4507
I11946
sI4508
I12319
sI4509
I12516
sI4510
I12286
sI4511
I12456
sI4512
I12273
sI4513
I12072
sI4514
I12570
sI4515
I12603
sI4516
I11668
sI4517
I12341
sI4518
I12318
sI4519
I12460
sI4520
I12834
sI4521
I11760
sI4522
I12256
sI4523
I12478
sI4524
I12275
sI4525
I12252
sI4526
I11727
sI4527
I11982
sI4528
I12010
sI4529
I12266
sI4530
I12046
sI4531
I12087
sI4532
I12054
sI4533
I12093
sI4534
I12088
sI4535
I11705
sI4536
I11901
sI4537
I12515
sI4538
I12597
sI4539
I11967
sI4540
I12467
sI4541
I12442
sI4542
I12367
sI4543
I12132
sI4544
I12348
sI4545
I12347
sI4546
I12620
sI4547
I12163
sI4548
I12320
sI4549
I12388
sI4550
I12650
sI4551
I11941
sI4552
I11934
sI4553
I12709
sI4554
I12866
sI4555
I11982
sI4556
I12364
sI4557
I12175
sI4558
I11775
sI4559
I12378
sI4560
I12581
sI4561
I12198
sI4562
I12705
sI4563
I12046
sI4564
I12277
sI4565
I12266
sI4566
I12418
sI4567
I11981
sI4568
I12485
sI4569
I12285
sI4570
I12603
sI4571
I12592
sI4572
I11963
sI4573
I12215
sI4574
I12621
sI4575
I12023
sI4576
I12109
sI4577
I12716
sI4578
I12361
sI4579
I12100
sI4580
I12384
sI4581
I12009
sI4582
I11880
sI4583
I12273
sI4584
I12807
sI4585
I12013
sI4586
I11751
sI4587
I12331
sI4588
I12000
sI4589
I11759
sI4590
I12309
sI4591
I12403
sI4592
I11706
sI4593
I11847
sI4594
I12030
sI4595
I11916
sI4596
I11688
sI4597
I12358
sI4598
I12586
sI4599
I11846
sI4600
I11626
sI4601
I11803
sI4602
I12454
sI4603
I12011
sI4604
I12026
sI4605
I11452
sI4606
I12377
sI4607
I12369
sI4608
I11881
sI4609
I11970
sI4610
I12438
sI4611
I11517
sI4612
I12059
sI4613
I11752
sI4614
I12008
sI4615
I11970
sI4616
I12348
sI4617
I12214
sI4618
I12610
sI4619
I11311
sI4620
I11718
sI4621
I11882
sI4622
I12041
sI4623
I12177
sI4624
I12028
sI4625
I12190
sI4626
I11910
sI4627
I12575
sI4628
I12027
sI4629
I11808
sI4630
I11724
sI4631
I11985
sI4632
I12403
sI4633
I12490
sI4634
I11983
sI4635
I11659
sI4636
I11980
sI4637
I11688
sI4638
I11674
sI4639
I11703
sI4640
I11689
sI4641
I11748
sI4642
I12061
sI4643
I11850
sI4644
I12435
sI4645
I11846
sI4646
I11941
sI4647
I11941
sI4648
I11790
sI4649
I12218
sI4650
I12048
sI4651
I12130
sI4652
I12115
sI4653
I11652
sI4654
I11852
sI4655
I12034
sI4656
I11654
sI4657
I11632
sI4658
I11533
sI4659
I11209
sI4660
I11845
sI4661
I11651
sI4662
I11410
sI4663
I11819
sI4664
I11925
sI4665
I11517
sI4666
I12033
sI4667
I11960
sI4668
I12241
sI4669
I12303
sI4670
I11998
sI4671
I11842
sI4672
I12451
sI4673
I11798
sI4674
I11586
sI4675
I11643
sI4676
I11510
sI4677
I11644
sI4678
I11666
sI4679
I11266
sI4680
I12083
sI4681
I11760
sI4682
I11863
sI4683
I11296
sI4684
I11518
sI4685
I12174
sI4686
I12352
sI4687
I11876
sI4688
I11738
sI4689
I11734
sI4690
I11397
sI4691
I11095
sI4692
I11880
sI4693
I11607
sI4694
I12174
sI4695
I11511
sI4696
I11463
sI4697
I11547
sI4698
I11723
sI4699
I11801
sI4700
I10796
sI4701
I10980
sI4702
I11579
sI4703
I11176
sI4704
I12127
sI4705
I11405
sI4706
I11858
sI4707
I12041
sI4708
I11657
sI4709
I11663
sI4710
I11427
sI4711
I12114
sI4712
I12140
sI4713
I11413
sI4714
I11798
sI4715
I11567
sI4716
I11640
sI4717
I11534
sI4718
I11437
sI4719
I12065
sI4720
I11269
sI4721
I12074
sI4722
I11724
sI4723
I11188
sI4724
I11925
sI4725
I11878
sI4726
I11327
sI4727
I11460
sI4728
I11485
sI4729
I11988
sI4730
I11687
sI4731
I12257
sI4732
I11908
sI4733
I11453
sI4734
I11080
sI4735
I11401
sI4736
I11494
sI4737
I12194
sI4738
I11288
sI4739
I11663
sI4740
I11365
sI4741
I11092
sI4742
I11621
sI4743
I11239
sI4744
I11363
sI4745
I11256
sI4746
I11415
sI4747
I10899
sI4748
I11743
sI4749
I11864
sI4750
I11808
sI4751
I11560
sI4752
I11890
sI4753
I11978
sI4754
I11987
sI4755
I11184
sI4756
I11666
sI4757
I11661
sI4758
I11458
sI4759
I11807
sI4760
I11459
sI4761
I11847
sI4762
I12112
sI4763
I11556
sI4764
I11786
sI4765
I11459
sI4766
I11464
sI4767
I11165
sI4768
I11500
sI4769
I11161
sI4770
I11254
sI4771
I11253
sI4772
I11022
sI4773
I10860
sI4774
I11783
sI4775
I11271
sI4776
I11740
sI4777
I12006
sI4778
I12180
sI4779
I11674
sI4780
I11690
sI4781
I11994
sI4782
I11926
sI4783
I11183
sI4784
I11900
sI4785
I11504
sI4786
I11427
sI4787
I11133
sI4788
I11256
sI4789
I11531
sI4790
I11426
sI4791
I11350
sI4792
I11444
sI4793
I10922
sI4794
I11176
sI4795
I11558
sI4796
I11503
sI4797
I11545
sI4798
I11840
sI4799
I11539
sI4800
I11315
sI4801
I10979
sI4802
I11005
sI4803
I11025
sI4804
I11278
sI4805
I11752
sI4806
I11338
sI4807
I11072
sI4808
I11822
sI4809
I11048
sI4810
I12514
sI4811
I11065
sI4812
I11440
sI4813
I11297
sI4814
I11478
sI4815
I11579
sI4816
I11387
sI4817
I11308
sI4818
I10960
sI4819
I11528
sI4820
I11338
sI4821
I11425
sI4822
I10942
sI4823
I11197
sI4824
I11372
sI4825
I11352
sI4826
I10888
sI4827
I11465
sI4828
I11339
sI4829
I11134
sI4830
I10907
sI4831
I11506
sI4832
I11804
sI4833
I11701
sI4834
I11001
sI4835
I11702
sI4836
I11367
sI4837
I11257
sI4838
I10896
sI4839
I10776
sI4840
I10877
sI4841
I10744
sI4842
I11311
sI4843
I11050
sI4844
I11775
sI4845
I11329
sI4846
I11643
sI4847
I11863
sI4848
I11194
sI4849
I11164
sI4850
I11321
sI4851
I10864
sI4852
I10779
sI4853
I11817
sI4854
I11608
sI4855
I10962
sI4856
I10926
sI4857
I11507
sI4858
I11553
sI4859
I11190
sI4860
I11307
sI4861
I10973
sI4862
I11277
sI4863
I11373
sI4864
I11254
sI4865
I11649
sI4866
I11036
sI4867
I11348
sI4868
I11023
sI4869
I11061
sI4870
I10951
sI4871
I10984
sI4872
I11807
sI4873
I10866
sI4874
I11018
sI4875
I11166
sI4876
I11243
sI4877
I10801
sI4878
I11051
sI4879
I11621
sI4880
I11270
sI4881
I11114
sI4882
I11195
sI4883
I11041
sI4884
I11898
sI4885
I11219
sI4886
I11173
sI4887
I11406
sI4888
I11154
sI4889
I11522
sI4890
I11305
sI4891
I11593
sI4892
I10646
sI4893
I10528
sI4894
I11411
sI4895
I10840
sI4896
I11002
sI4897
I11136
sI4898
I11002
sI4899
I10947
sI4900
I10570
sI4901
I11114
sI4902
I10852
sI4903
I10911
sI4904
I10742
sI4905
I11089
sI4906
I11382
sI4907
I10955
sI4908
I11184
sI4909
I11309
sI4910
I11066
sI4911
I11234
sI4912
I11219
sI4913
I11104
sI4914
I10697
sI4915
I11012
sI4916
I11258
sI4917
I11124
sI4918
I10853
sI4919
I11140
sI4920
I10914
sI4921
I11199
sI4922
I11317
sI4923
I11230
sI4924
I10898
sI4925
I11208
sI4926
I11329
sI4927
I11198
sI4928
I10897
sI4929
I10557
sI4930
I10731
sI4931
I11310
sI4932
I10939
sI4933
I11251
sI4934
I11197
sI4935
I11253
sI4936
I11395
sI4937
I10795
sI4938
I11183
sI4939
I10512
sI4940
I11220
sI4941
I11185
sI4942
I10834
sI4943
I11523
sI4944
I10892
sI4945
I11034
sI4946
I11346
sI4947
I10736
sI4948
I10946
sI4949
I10372
sI4950
I10978
sI4951
I10975
sI4952
I10838
sI4953
I11327
sI4954
I11042
sI4955
I10553
sI4956
I11370
sI4957
I11048
sI4958
I10753
sI4959
I10718
sI4960
I10809
sI4961
I11135
sI4962
I10928
sI4963
I10797
sI4964
I10967
sI4965
I10916
sI4966
I10674
sI4967
I10766
sI4968
I10699
sI4969
I11009
sI4970
I10760
sI4971
I10625
sI4972
I10919
sI4973
I10853
sI4974
I10700
sI4975
I11125
sI4976
I10861
sI4977
I10816
sI4978
I10700
sI4979
I11153
sI4980
I11025
sI4981
I10822
sI4982
I10747
sI4983
I10788
sI4984
I11441
sI4985
I11101
sI4986
I11198
sI4987
I10280
sI4988
I10395
sI4989
I10957
sI4990
I10706
sI4991
I10617
sI4992
I11369
sI4993
I11001
sI4994
I10960
sI4995
I10865
sI4996
I10956
sI4997
I9840
sI4998
I11284
sI4999
I11010
sI5000
I11138
sI5001
I10653
sI5002
I11044
sI5003
I11098
sI5004
I11086
sI5005
I10668
sI5006
I10751
sI5007
I10344
sI5008
I10651
sI5009
I10599
sI5010
I10759
sI5011
I10963
sI5012
I10602
sI5013
I10564
sI5014
I10691
sI5015
I10697
sI5016
I10586
sI5017
I10914
sI5018
I10501
sI5019
I10892
sI5020
I10753
sI5021
I10982
sI5022
I10232
sI5023
I10430
sI5024
I10802
sI5025
I10907
sI5026
I10873
sI5027
I10813
sI5028
I11203
sI5029
I10325
sI5030
I10744
sI5031
I10435
sI5032
I10536
sI5033
I10898
sI5034
I10705
sI5035
I10778
sI5036
I10595
sI5037
I10516
sI5038
I10455
sI5039
I11021
sI5040
I10804
sI5041
I10576
sI5042
I11141
sI5043
I10632
sI5044
I10010
sI5045
I10987
sI5046
I10487
sI5047
I10488
sI5048
I10728
sI5049
I10517
sI5050
I10636
sI5051
I10241
sI5052
I10324
sI5053
I10710
sI5054
I10412
sI5055
I10534
sI5056
I10511
sI5057
I10760
sI5058
I10539
sI5059
I10851
sI5060
I10500
sI5061
I10465
sI5062
I11012
sI5063
I10479
sI5064
I10796
sI5065
I10702
sI5066
I10425
sI5067
I10613
sI5068
I11359
sI5069
I10427
sI5070
I10989
sI5071
I10847
sI5072
I11044
sI5073
I10754
sI5074
I10396
sI5075
I10118
sI5076
I10352
sI5077
I10600
sI5078
I10321
sI5079
I10632
sI5080
I10656
sI5081
I10397
sI5082
I10723
sI5083
I10392
sI5084
I10731
sI5085
I10768
sI5086
I10689
sI5087
I10839
sI5088
I10588
sI5089
I10685
sI5090
I10894
sI5091
I10143
sI5092
I10677
sI5093
I10051
sI5094
I10821
sI5095
I10468
sI5096
I10073
sI5097
I9940
sI5098
I11118
sI5099
I10628
sI5100
I10627
sI5101
I10968
sI5102
I10291
sI5103
I10127
sI5104
I10641
sI5105
I10595
sI5106
I10679
sI5107
I10188
sI5108
I10803
sI5109
I10200
sI5110
I10582
sI5111
I10873
sI5112
I10572
sI5113
I10746
sI5114
I10214
sI5115
I10198
sI5116
I10867
sI5117
I10375
sI5118
I10776
sI5119
I10701
sI5120
I10590
sI5121
I10314
sI5122
I10689
sI5123
I10470
sI5124
I10524
sI5125
I10371
sI5126
I10252
sI5127
I10569
sI5128
I10363
sI5129
I10741
sI5130
I10144
sI5131
I10227
sI5132
I10589
sI5133
I10239
sI5134
I10287
sI5135
I9945
sI5136
I10512
sI5137
I10701
sI5138
I10472
sI5139
I10237
sI5140
I10700
sI5141
I10346
sI5142
I10708
sI5143
I9875
sI5144
I10315
sI5145
I10895
sI5146
I10051
sI5147
I10200
sI5148
I9778
sI5149
I10503
sI5150
I10309
sI5151
I10723
sI5152
I10854
sI5153
I10499
sI5154
I10537
sI5155
I9897
sI5156
I10383
sI5157
I10443
sI5158
I10766
sI5159
I10295
sI5160
I10164
sI5161
I9451
sI5162
I11001
sI5163
I10368
sI5164
I10460
sI5165
I10318
sI5166
I10210
sI5167
I10755
sI5168
I10838
sI5169
I10680
sI5170
I10366
sI5171
I10298
sI5172
I10667
sI5173
I10309
sI5174
I10784
sI5175
I10056
sI5176
I10633
sI5177
I10134
sI5178
I10393
sI5179
I10133
sI5180
I10514
sI5181
I10466
sI5182
I9812
sI5183
I10090
sI5184
I10406
sI5185
I9805
sI5186
I10494
sI5187
I10644
sI5188
I10171
sI5189
I9874
sI5190
I9994
sI5191
I9779
sI5192
I10231
sI5193
I9767
sI5194
I9769
sI5195
I10312
sI5196
I10189
sI5197
I10344
sI5198
I10600
sI5199
I10531
sI5200
I10358
sI5201
I10488
sI5202
I9843
sI5203
I9893
sI5204
I9762
sI5205
I9525
sI5206
I9744
sI5207
I10248
sI5208
I9731
sI5209
I10538
sI5210
I9729
sI5211
I9996
sI5212
I10476
sI5213
I10465
sI5214
I10228
sI5215
I10173
sI5216
I9583
sI5217
I10268
sI5218
I9916
sI5219
I10414
sI5220
I10380
sI5221
I10133
sI5222
I10150
sI5223
I10165
sI5224
I9843
sI5225
I10268
sI5226
I9985
sI5227
I10519
sI5228
I9685
sI5229
I10111
sI5230
I10409
sI5231
I10271
sI5232
I10182
sI5233
I9978
sI5234
I10434
sI5235
I10087
sI5236
I10492
sI5237
I10283
sI5238
I9868
sI5239
I9870
sI5240
I10158
sI5241
I10378
sI5242
I9748
sI5243
I10633
sI5244
I10207
sI5245
I10143
sI5246
I10782
sI5247
I10547
sI5248
I10269
sI5249
I10234
sI5250
I9760
sI5251
I10249
sI5252
I10173
sI5253
I10258
sI5254
I10150
sI5255
I10219
sI5256
I10324
sI5257
I10258
sI5258
I9977
sI5259
I10153
sI5260
I9530
sI5261
I9721
sI5262
I10170
sI5263
I9954
sI5264
I9815
sI5265
I10106
sI5266
I9922
sI5267
I9975
sI5268
I10275
sI5269
I9779
sI5270
I10100
sI5271
I10007
sI5272
I10042
sI5273
I10145
sI5274
I9968
sI5275
I10243
sI5276
I9811
sI5277
I9990
sI5278
I9225
sI5279
I9978
sI5280
I9783
sI5281
I9683
sI5282
I9963
sI5283
I10299
sI5284
I10281
sI5285
I9973
sI5286
I10440
sI5287
I10158
sI5288
I10027
sI5289
I9711
sI5290
I10156
sI5291
I10525
sI5292
I10428
sI5293
I9839
sI5294
I9490
sI5295
I9272
sI5296
I10117
sI5297
I9776
sI5298
I10060
sI5299
I10166
sI5300
I9993
sI5301
I9780
sI5302
I9967
sI5303
I10154
sI5304
I9655
sI5305
I9990
sI5306
I9721
sI5307
I9632
sI5308
I10222
sI5309
I9626
sI5310
I9930
sI5311
I9885
sI5312
I9914
sI5313
I9920
sI5314
I10135
sI5315
I9709
sI5316
I9699
sI5317
I9669
sI5318
I10400
sI5319
I9994
sI5320
I9842
sI5321
I9824
sI5322
I10100
sI5323
I10155
sI5324
I9697
sI5325
I10209
sI5326
I9948
sI5327
I10305
sI5328
I9735
sI5329
I9974
sI5330
I9522
sI5331
I10511
sI5332
I9794
sI5333
I10165
sI5334
I9367
sI5335
I9821
sI5336
I9644
sI5337
I9802
sI5338
I9636
sI5339
I10001
sI5340
I9578
sI5341
I9708
sI5342
I10338
sI5343
I9784
sI5344
I10351
sI5345
I10108
sI5346
I9728
sI5347
I9395
sI5348
I9641
sI5349
I9922
sI5350
I9502
sI5351
I9582
sI5352
I9336
sI5353
I10165
sI5354
I10006
sI5355
I9818
sI5356
I9360
sI5357
I9620
sI5358
I9646
sI5359
I9780
sI5360
I9410
sI5361
I10519
sI5362
I9930
sI5363
I9573
sI5364
I9538
sI5365
I9613
sI5366
I9660
sI5367
I9160
sI5368
I9284
sI5369
I9638
sI5370
I9628
sI5371
I9456
sI5372
I9963
sI5373
I9915
sI5374
I9549
sI5375
I9393
sI5376
I9491
sI5377
I9484
sI5378
I10123
sI5379
I9605
sI5380
I9325
sI5381
I9796
sI5382
I10235
sI5383
I10045
sI5384
I9485
sI5385
I10454
sI5386
I9663
sI5387
I9603
sI5388
I9886
sI5389
I9672
sI5390
I9700
sI5391
I9593
sI5392
I9813
sI5393
I9278
sI5394
I9596
sI5395
I9448
sI5396
I9638
sI5397
I10017
sI5398
I9528
sI5399
I9590
sI5400
I9663
sI5401
I9499
sI5402
I9808
sI5403
I9364
sI5404
I10019
sI5405
I9800
sI5406
I9550
sI5407
I9947
sI5408
I9664
sI5409
I8910
sI5410
I9677
sI5411
I9813
sI5412
I10111
sI5413
I9427
sI5414
I9309
sI5415
I9699
sI5416
I9245
sI5417
I9867
sI5418
I9555
sI5419
I9450
sI5420
I9930
sI5421
I9217
sI5422
I9627
sI5423
I9335
sI5424
I10063
sI5425
I9444
sI5426
I10073
sI5427
I9402
sI5428
I9295
s.