(dp0
I0
(lp1
I203
aI203
aI203
aI203
aI203
aI203
aI203
aI203
aI203
aI203
aI203
aI203
aI203
aI203
aI203
aI203
aI203
aI203
aI203
aI203
aI203
aI203
aI203
aI203
aI203
aI203
aI203
aI203
aI203
aI203
aI203
aI203
aI203
aI203
aI203
aI203
aI203
aI203
aI203
aI203
aI203
aI203
aI203
aI203
aI203
aI203
aI203
aI203
aI203
aI203
aI203
aI203
aI203
aI203
aI203
aI203
aI203
aI203
aI203
aI203
aI203
aI203
aI203
aI203
aI203
aI203
aI203
aI203
aI203
aI203
aI203
aI203
aI203
aI203
aI203
aI203
aI203
aI203
aI203
aI203
aI203
aI203
aI203
aI203
aI203
aI203
aI203
aI203
aI203
aI203
aI203
aI203
aI203
aI203
aI203
aI203
aI203
aI203
aI203
aI203
asI1
(lp2
I31
aI31
aI26
aI22
aI37
aI27
aI24
aI28
aI30
aI29
aI31
aI28
aI33
aI27
aI25
aI27
aI28
aI27
aI27
aI22
aI33
aI28
aI31
aI34
aI22
aI38
aI27
aI30
aI30
aI30
aI26
aI35
aI24
aI23
aI36
aI32
aI33
aI34
aI31
aI23
aI29
aI36
aI30
aI31
aI30
aI24
aI26
aI25
aI28
aI27
aI26
aI27
aI27
aI30
aI31
aI32
aI31
aI27
aI32
aI33
aI31
aI34
aI29
aI29
aI28
aI31
aI34
aI42
aI40
aI31
aI30
aI35
aI34
aI23
aI33
aI32
aI35
aI28
aI34
aI33
aI31
aI21
aI33
aI33
aI34
aI27
aI30
aI27
aI24
aI34
aI25
aI28
aI39
aI31
aI33
aI26
aI23
aI28
aI33
aI28
asI2
(lp3
I2
aI7
aI3
aI13
aI14
aI4
aI8
aI7
aI9
aI1
aI6
aI8
aI11
aI4
aI4
aI6
aI11
aI5
aI4
aI5
aI2
aI2
aI4
aI3
aI9
aI7
aI12
aI4
aI17
aI16
aI5
aI24
aI5
aI3
aI3
aI5
aI9
aI7
aI14
aI15
aI7
aI3
aI7
aI8
aI9
aI2
aI5
aI3
aI10
aI10
aI6
aI5
aI8
aI6
aI12
aI14
aI4
aI7
aI6
aI2
aI6
aI2
aI5
aI2
aI5
aI9
aI5
aI7
aI6
aI15
aI4
aI2
aI7
aI10
aI4
aI6
aI4
aI4
aI3
aI1
aI6
aI7
aI4
aI6
aI13
aI8
aI11
aI7
aI3
aI4
aI7
aI2
aI1
aI25
aI6
aI4
aI23
aI12
aI7
aI8
asI3
(lp4
I1
aI0
aI0
aI0
aI4
aI0
aI0
aI2
aI3
aI0
aI0
aI0
aI1
aI1
aI2
aI0
aI0
aI1
aI2
aI0
aI1
aI0
aI0
aI2
aI0
aI3
aI3
aI1
aI6
aI0
aI0
aI7
aI3
aI0
aI2
aI0
aI1
aI0
aI0
aI2
aI1
aI0
aI0
aI3
aI0
aI0
aI1
aI2
aI0
aI3
aI0
aI3
aI0
aI0
aI1
aI1
aI1
aI0
aI1
aI0
aI0
aI1
aI2
aI0
aI0
aI5
aI1
aI2
aI3
aI1
aI3
aI0
aI0
aI0
aI1
aI0
aI0
aI0
aI2
aI2
aI3
aI0
aI0
aI0
aI3
aI0
aI0
aI1
aI0
aI4
aI0
aI0
aI0
aI2
aI3
aI0
aI0
aI1
aI2
aI4
asI-1
(lp5
I20469
aI20465
aI20474
aI20468
aI20448
aI20472
aI20471
aI20466
aI20461
aI20473
aI20466
aI20467
aI20458
aI20471
aI20472
aI20470
aI20464
aI20470
aI20470
aI20476
aI20467
aI20473
aI20468
aI20464
aI20472
aI20455
aI20461
aI20468
aI20450
aI20457
aI20472
aI20437
aI20471
aI20477
aI20462
aI20466
aI20460
aI20462
aI20458
aI20463
aI20466
aI20464
aI20466
aI20461
aI20464
aI20477
aI20471
aI20473
aI20465
aI20463
aI20471
aI20468
aI20468
aI20467
aI20459
aI20456
aI20467
aI20469
aI20464
aI20468
aI20466
aI20466
aI20467
aI20472
aI20470
aI20458
aI20463
aI20452
aI20454
aI20456
aI20466
aI20466
aI20462
aI20470
aI20465
aI20465
aI20464
aI20471
aI20464
aI20467
aI20463
aI20475
aI20466
aI20464
aI20453
aI20468
aI20462
aI20468
aI20476
aI20461
aI20471
aI20473
aI20463
aI20445
aI20461
aI20473
aI20457
aI20462
aI20461
aI20463
as.