(dp0
I0
(lp1
I67
aI67
aI67
aI67
aI67
aI67
aI67
aI67
aI67
aI67
aI67
aI67
aI67
aI67
aI67
aI67
aI67
aI67
aI67
aI67
aI67
aI67
aI67
aI67
aI67
aI67
aI67
aI67
aI67
aI67
aI67
aI67
aI67
aI67
aI67
aI67
aI67
aI67
aI67
aI67
aI67
aI67
aI67
aI67
aI67
aI67
aI67
aI67
aI67
aI67
aI67
aI67
aI67
aI67
aI67
aI67
aI67
aI67
aI67
aI67
aI67
aI67
aI67
aI67
aI67
aI67
aI67
aI67
aI67
aI67
aI67
aI67
aI67
aI67
aI67
aI67
aI67
aI67
aI67
aI67
aI67
aI67
aI67
aI67
aI67
aI67
aI67
aI67
aI67
aI67
aI67
aI67
aI67
aI67
aI67
aI67
aI67
aI67
aI67
aI67
asI1
(lp2
I11
aI11
aI10
aI14
aI12
aI12
aI12
aI11
aI10
aI7
aI14
aI10
aI7
aI10
aI17
aI15
aI11
aI11
aI17
aI16
aI6
aI10
aI13
aI12
aI13
aI15
aI10
aI15
aI11
aI8
aI12
aI13
aI10
aI13
aI14
aI12
aI11
aI7
aI15
aI13
aI12
aI10
aI13
aI12
aI13
aI14
aI13
aI10
aI13
aI14
aI12
aI13
aI11
aI11
aI8
aI11
aI10
aI12
aI11
aI8
aI13
aI10
aI9
aI16
aI12
aI12
aI12
aI12
aI15
aI13
aI11
aI10
aI12
aI13
aI11
aI10
aI13
aI12
aI10
aI12
aI14
aI12
aI15
aI12
aI12
aI15
aI12
aI10
aI9
aI11
aI11
aI9
aI10
aI10
aI9
aI9
aI16
aI14
aI11
aI14
asI2
(lp3
I1
aI0
aI1
aI1
aI0
aI0
aI2
aI1
aI0
aI0
aI1
aI1
aI2
aI0
aI0
aI0
aI0
aI0
aI0
aI0
aI1
aI1
aI0
aI1
aI0
aI0
aI1
aI0
aI2
aI1
aI0
aI1
aI0
aI2
aI0
aI0
aI2
aI2
aI0
aI0
aI1
aI0
aI1
aI1
aI1
aI3
aI0
aI2
aI1
aI0
aI1
aI2
aI1
aI1
aI0
aI0
aI0
aI2
aI1
aI1
aI1
aI0
aI1
aI1
aI1
aI0
aI0
aI0
aI0
aI1
aI0
aI1
aI1
aI1
aI1
aI0
aI1
aI0
aI0
aI1
aI1
aI0
aI0
aI0
aI1
aI0
aI1
aI0
aI0
aI1
aI1
aI0
aI0
aI0
aI0
aI0
aI2
aI0
aI0
aI1
asI-1
(lp4
I2199
aI2200
aI2200
aI2196
aI2199
aI2199
aI2197
aI2199
aI2201
aI2204
aI2196
aI2200
aI2202
aI2201
aI2194
aI2196
aI2200
aI2200
aI2194
aI2195
aI2204
aI2200
aI2198
aI2198
aI2198
aI2196
aI2200
aI2196
aI2198
aI2202
aI2199
aI2197
aI2201
aI2196
aI2197
aI2199
aI2198
aI2202
aI2196
aI2198
aI2198
aI2201
aI2197
aI2198
aI2197
aI2194
aI2198
aI2199
aI2197
aI2197
aI2198
aI2196
aI2199
aI2199
aI2203
aI2200
aI2201
aI2197
aI2199
aI2202
aI2197
aI2201
aI2201
aI2194
aI2198
aI2199
aI2199
aI2199
aI2196
aI2197
aI2200
aI2200
aI2198
aI2197
aI2199
aI2201
aI2197
aI2199
aI2201
aI2198
aI2196
aI2199
aI2196
aI2199
aI2198
aI2196
aI2198
aI2201
aI2202
aI2199
aI2199
aI2202
aI2201
aI2201
aI2202
aI2202
aI2193
aI2197
aI2200
aI2196
as.