(dp0
I0
(lp1
I445
aI445
aI445
aI445
aI445
aI445
aI445
aI445
aI445
aI445
aI445
aI445
aI445
aI445
aI445
aI445
aI445
aI445
aI445
aI445
aI445
aI445
aI445
aI445
aI445
aI445
aI445
aI445
aI445
aI445
aI445
aI445
aI445
aI445
aI445
aI445
aI445
aI445
aI445
aI445
aI445
aI445
aI445
aI445
aI445
aI445
aI445
aI445
aI445
aI445
aI445
aI445
aI445
aI445
aI445
aI445
aI445
aI445
aI445
aI445
aI445
aI445
aI445
aI445
aI445
aI445
aI445
aI445
aI445
aI445
aI445
aI445
aI445
aI445
aI445
aI445
aI445
aI445
aI445
aI445
aI445
aI445
aI445
aI445
aI445
aI445
aI445
aI445
aI445
aI445
aI445
aI445
aI445
aI445
aI445
aI445
aI445
aI445
aI445
aI445
asI1
(lp2
I64
aI56
aI69
aI70
aI60
aI64
aI51
aI50
aI58
aI57
aI45
aI66
aI51
aI58
aI50
aI59
aI53
aI57
aI60
aI54
aI58
aI50
aI46
aI70
aI58
aI56
aI57
aI55
aI63
aI58
aI55
aI52
aI66
aI50
aI60
aI47
aI62
aI60
aI59
aI53
aI56
aI48
aI51
aI64
aI58
aI53
aI68
aI59
aI48
aI60
aI61
aI55
aI55
aI56
aI64
aI64
aI48
aI50
aI62
aI53
aI55
aI64
aI55
aI46
aI55
aI55
aI55
aI56
aI68
aI55
aI57
aI61
aI59
aI49
aI55
aI58
aI57
aI45
aI48
aI56
aI54
aI48
aI60
aI63
aI59
aI53
aI55
aI59
aI54
aI56
aI52
aI49
aI58
aI53
aI57
aI63
aI53
aI57
aI51
aI44
asI2
(lp3
I14
aI13
aI10
aI9
aI15
aI10
aI11
aI22
aI20
aI13
aI19
aI15
aI16
aI14
aI5
aI13
aI15
aI8
aI10
aI13
aI9
aI25
aI14
aI12
aI15
aI7
aI13
aI27
aI11
aI7
aI12
aI6
aI27
aI12
aI10
aI21
aI10
aI14
aI24
aI7
aI17
aI8
aI12
aI15
aI17
aI13
aI20
aI29
aI13
aI13
aI8
aI6
aI8
aI28
aI11
aI17
aI11
aI14
aI7
aI32
aI8
aI5
aI7
aI14
aI11
aI14
aI20
aI14
aI20
aI18
aI19
aI18
aI12
aI15
aI18
aI19
aI18
aI14
aI18
aI4
aI10
aI17
aI11
aI20
aI7
aI9
aI10
aI16
aI9
aI8
aI4
aI11
aI3
aI24
aI18
aI11
aI19
aI15
aI14
aI12
asI3
(lp4
I5
aI5
aI5
aI0
aI8
aI4
aI4
aI2
aI8
aI4
aI3
aI2
aI6
aI3
aI2
aI1
aI7
aI5
aI1
aI5
aI2
aI1
aI6
aI6
aI4
aI1
aI4
aI5
aI4
aI7
aI3
aI2
aI3
aI1
aI2
aI0
aI5
aI3
aI4
aI2
aI1
aI10
aI1
aI8
aI2
aI0
aI5
aI9
aI4
aI0
aI3
aI2
aI2
aI4
aI5
aI3
aI6
aI9
aI4
aI7
aI4
aI1
aI2
aI2
aI6
aI4
aI4
aI6
aI7
aI3
aI10
aI2
aI2
aI2
aI5
aI2
aI5
aI6
aI1
aI1
aI2
aI1
aI3
aI1
aI0
aI3
aI7
aI4
aI2
aI0
aI4
aI3
aI2
aI3
aI1
aI4
aI5
aI4
aI4
aI2
asI4
(lp5
I3
aI2
aI5
aI0
aI1
aI4
aI3
aI5
aI5
aI1
aI3
aI0
aI7
aI1
aI1
aI1
aI0
aI4
aI1
aI5
aI1
aI0
aI3
aI2
aI1
aI0
aI2
aI2
aI6
aI5
aI4
aI5
aI0
aI2
aI4
aI2
aI2
aI1
aI2
aI0
aI3
aI4
aI0
aI3
aI3
aI3
aI0
aI2
aI2
aI0
aI2
aI1
aI2
aI3
aI3
aI3
aI1
aI5
aI2
aI1
aI2
aI1
aI0
aI2
aI4
aI6
aI2
aI1
aI2
aI3
aI1
aI2
aI0
aI1
aI2
aI1
aI7
aI0
aI8
aI1
aI2
aI5
aI3
aI1
aI3
aI0
aI4
aI6
aI1
aI0
aI2
aI3
aI0
aI1
aI5
aI1
aI2
aI7
aI1
aI1
asI5
(lp6
I0
aI0
aI0
aI0
aI0
aI0
aI1
aI1
aI0
aI0
aI0
aI1
aI0
aI0
aI0
aI0
aI0
aI2
aI0
aI0
aI0
aI1
aI0
aI0
aI0
aI1
aI0
aI2
aI0
aI0
aI0
aI0
aI0
aI1
aI0
aI0
aI0
aI0
aI0
aI0
aI1
aI1
aI0
aI0
aI0
aI0
aI0
aI0
aI0
aI0
aI0
aI0
aI1
aI0
aI0
aI0
aI0
aI1
aI0
aI0
aI0
aI1
aI0
aI0
aI1
aI0
aI0
aI0
aI0
aI0
aI0
aI0
aI0
aI0
aI0
aI0
aI0
aI0
aI0
aI0
aI0
aI0
aI0
aI0
aI0
aI0
aI0
aI0
aI0
aI0
aI0
aI0
aI0
aI0
aI0
aI0
aI0
aI0
aI0
aI0
asI-1
(lp7
I98704
aI98714
aI98701
aI98711
aI98706
aI98708
aI98720
aI98710
aI98699
aI98715
aI98720
aI98706
aI98710
aI98714
aI98732
aI98716
aI98715
aI98714
aI98718
aI98713
aI98720
aI98713
aI98721
aI98700
aI98712
aI98725
aI98714
aI98699
aI98706
aI98713
aI98716
aI98725
aI98694
aI98724
aI98714
aI98720
aI98711
aI98712
aI98701
aI98728
aI98712
aI98719
aI98726
aI98700
aI98710
aI98721
aI98697
aI98691
aI98723
aI98717
aI98716
aI98726
aI98722
aI98699
aI98707
aI98703
aI98724
aI98711
aI98715
aI98697
aI98721
aI98718
aI98726
aI98726
aI98713
aI98711
aI98709
aI98713
aI98693
aI98711
aI98703
aI98707
aI98717
aI98723
aI98710
aI98710
aI98703
aI98725
aI98715
aI98728
aI98722
aI98719
aI98713
aI98705
aI98721
aI98725
aI98714
aI98705
aI98724
aI98726
aI98728
aI98724
aI98727
aI98709
aI98709
aI98711
aI98711
aI98707
aI98720
aI98731
as.